# SymbolsHelper-Confirmed: 2.2.0 amd64
libpeony.so.2 libpeony2 #MINVER#
* Build-Depends-Package: libpeony-dev
 (optional=templinst)_Z17qRegisterMetaTypeISt10shared_ptrIN5Peony13GErrorWrapperEEEiPKcPT_N9QtPrivate21MetaTypeDefinedHelperIS6_Xaasr12QMetaTypeId2IS6_E7DefinedntsrSB_9IsBuiltInEE11DefinedTypeE@Base 2.0.0
 _Z26qInitResources_libpeony_qtv@Base 2.0.0
 (optional=templinst)_Z27qRegisterNormalizedMetaTypeI5QListI21QPersistentModelIndexEEiRK10QByteArrayPT_N9QtPrivate21MetaTypeDefinedHelperIS6_Xaasr12QMetaTypeId2IS6_E7DefinedntsrSB_9IsBuiltInEE11DefinedTypeE@Base 2.0.0
 _Z29qCleanupResources_libpeony_qtv@Base 2.0.0
 _Z40peony_search_vfs_file_enumerate_childrenP6_GFilePKc19GFileQueryInfoFlagsP13_GCancellablePP7_GError@Base 2.0.0
 _Z42peony_search_vfs_file_enumerator_parse_uriP29_PeonySearchVFSFileEnumeratorPKc@Base 2.0.0
 _ZGVZN9QtPrivate15ConnectionTypesINS_4ListIJRK7QStringS4_RKSt10shared_ptrIN5Peony13GErrorWrapperEEbEEELb1EE5typesEvE1t@Base 2.0.0
 _ZGVZN9QtPrivate19ValueTypeIsMetaTypeI5QListI11QModelIndexELb1EE17registerConverterEiE1f@Base 2.0.0
 _ZGVZN9QtPrivate19ValueTypeIsMetaTypeI5QListI21QPersistentModelIndexELb1EE17registerConverterEiE1f@Base 2.0.0
 _ZN10QByteArrayD1Ev@Base 2.0.0
 _ZN10QByteArrayD2Ev@Base 2.0.0
 _ZN12PdfThumbnail17generateThumbnailEj@Base 2.0.0
 _ZN12PdfThumbnailC1ERK7QStringj@Base 2.0.0
 _ZN12PdfThumbnailC2ERK7QStringj@Base 2.0.0
 _ZN12PdfThumbnailD1Ev@Base 2.0.0
 _ZN12PdfThumbnailD2Ev@Base 2.0.0
 (optional=templinst)_ZN12QtConcurrent15RunFunctionTaskIvE3runEv@Base 2.0.0
 (optional=templinst)_ZN12QtConcurrent19RunFunctionTaskBaseIvE3runEv@Base 2.0.0
 _ZN13FileLabelItem11nameChangedERK7QString@Base 2.1.0
 _ZN13FileLabelItem11qt_metacallEN11QMetaObject4CallEiPPv@Base 2.1.0
 _ZN13FileLabelItem11qt_metacastEPKc@Base 2.1.0
 _ZN13FileLabelItem12colorChangedERK6QColor@Base 2.1.0
 _ZN13FileLabelItem16staticMetaObjectE@Base 2.1.0
 _ZN13FileLabelItem2idEv@Base 2.1.0
 _ZN13FileLabelItem4nameEv@Base 2.1.0
 _ZN13FileLabelItem5colorEv@Base 2.1.0
 _ZN13FileLabelItem7setNameERK7QString@Base 2.1.0
 _ZN13FileLabelItem8setColorERK6QColor@Base 2.1.0
 _ZN13FileLabelItemC1EP7QObject@Base 2.1.0
 _ZN13FileLabelItemC2EP7QObject@Base 2.1.0
 _ZN13FileLabelItemD0Ev@Base 2.1.0
 _ZN13FileLabelItemD1Ev@Base 2.1.0
 _ZN13FileLabelItemD2Ev@Base 2.1.0
 _ZN14FileLabelModel10insertRowsEiiRK11QModelIndex@Base 2.1.0
 _ZN14FileLabelModel10itemFromIdEi@Base 2.1.0
 _ZN14FileLabelModel10removeRowsEiiRK11QModelIndex@Base 2.1.0
 _ZN14FileLabelModel11lastLabelIdEv@Base 2.1.0
 _ZN14FileLabelModel11qt_metacallEN11QMetaObject4CallEiPPv@Base 2.1.0
 _ZN14FileLabelModel11qt_metacastEPKc@Base 2.1.0
 _ZN14FileLabelModel11removeLabelEi@Base 2.1.0
 _ZN14FileLabelModel12setLabelNameEiRK7QString@Base 2.1.0
 _ZN14FileLabelModel13getFileColorsERK7QString@Base 2.1.0
 _ZN14FileLabelModel13getFileLabelsERK7QString@Base 2.1.0
 _ZN14FileLabelModel13itemFormIndexERK11QModelIndex@Base 2.1.0
 _ZN14FileLabelModel13setLabelColorEiRK6QColor@Base 2.1.0
 _ZN14FileLabelModel14addLabelToFileERK7QStringi@Base 2.1.0
 _ZN14FileLabelModel14getGlobalModelEv@Base 2.1.0
 _ZN14FileLabelModel14initLabelItemsEv@Base 2.1.0
 _ZN14FileLabelModel15getFileLabelIdsERK7QString@Base 2.1.0
 _ZN14FileLabelModel15removeFileLabelERK7QStringi@Base 2.1.0
 _ZN14FileLabelModel16fileLabelChangedERK7QString@Base 2.1.0
 _ZN14FileLabelModel16staticMetaObjectE@Base 2.1.0
 _ZN14FileLabelModel20getAllFileLabelItemsEv@Base 2.1.0
 _ZN14FileLabelModel5addIdEv@Base 2.1.0
 _ZN14FileLabelModel7setDataERK11QModelIndexRK8QVarianti@Base 2.1.0
 _ZN14FileLabelModel7setNameEP13FileLabelItemRK7QString@Base 2.1.0
 _ZN14FileLabelModel8addLabelERK7QStringRK6QColor@Base 2.1.0
 _ZN14FileLabelModel8setColorEP13FileLabelItemRK6QColor@Base 2.1.0
 _ZN14FileLabelModel9getColorsEv@Base 2.1.0
 _ZN14FileLabelModel9getLabelsEv@Base 2.1.0
 _ZN14FileLabelModelC1EP7QObject@Base 2.1.0
 _ZN14FileLabelModelC2EP7QObject@Base 2.1.0
 _ZN14FileLabelModelD0Ev@Base 2.1.0
 _ZN14FileLabelModelD1Ev@Base 2.1.0
 _ZN14FileLabelModelD2Ev@Base 2.1.0
 _ZN14LinuxPWDHelper14getCurrentUserEv@Base 2.0.0
 _ZN14LinuxPWDHelper15getAllUserInfosEv@Base 2.0.0
 _ZN14LinuxPWDHelperC1Ev@Base 2.0.0
 _ZN14LinuxPWDHelperC2Ev@Base 2.0.0
 (optional=templinst)_ZN16QFutureInterfaceIvED0Ev@Base 2.0.0
 (optional=templinst)_ZN16QFutureInterfaceIvED1Ev@Base 2.0.0
 (optional=templinst)_ZN16QFutureInterfaceIvED2Ev@Base 2.0.0
 (optional=templinst)_ZN17QtMetaTypePrivate19IteratorOwnerCommonIN5QListI11QModelIndexE14const_iteratorEE5equalEPKPvS8_@Base 2.0.0
 (optional=templinst)_ZN17QtMetaTypePrivate19IteratorOwnerCommonIN5QListI11QModelIndexE14const_iteratorEE6assignEPPvPKS6_@Base 2.0.0
 (optional=templinst)_ZN17QtMetaTypePrivate19IteratorOwnerCommonIN5QListI11QModelIndexE14const_iteratorEE7advanceEPPvi@Base 2.0.0
 (optional=templinst)_ZN17QtMetaTypePrivate19IteratorOwnerCommonIN5QListI11QModelIndexE14const_iteratorEE7destroyEPPv@Base 2.0.0
 (optional=templinst)_ZN17QtMetaTypePrivate19IteratorOwnerCommonIN5QListI21QPersistentModelIndexE14const_iteratorEE5equalEPKPvS8_@Base 2.0.0
 (optional=templinst)_ZN17QtMetaTypePrivate19IteratorOwnerCommonIN5QListI21QPersistentModelIndexE14const_iteratorEE6assignEPPvPKS6_@Base 2.0.0
 (optional=templinst)_ZN17QtMetaTypePrivate19IteratorOwnerCommonIN5QListI21QPersistentModelIndexE14const_iteratorEE7advanceEPPvi@Base 2.0.0
 (optional=templinst)_ZN17QtMetaTypePrivate19IteratorOwnerCommonIN5QListI21QPersistentModelIndexE14const_iteratorEE7destroyEPPv@Base 2.0.0
 (optional=templinst)_ZN17QtMetaTypePrivate23QMetaTypeFunctionHelperI14QItemSelectionLb1EE8DestructEPv@Base 2.0.0
 (optional=templinst)_ZN17QtMetaTypePrivate23QMetaTypeFunctionHelperI14QItemSelectionLb1EE9ConstructEPvPKv@Base 2.0.0
 (optional=templinst)_ZN17QtMetaTypePrivate23QMetaTypeFunctionHelperI5QListI11QModelIndexELb1EE8DestructEPv@Base 2.0.0
 (optional=templinst)_ZN17QtMetaTypePrivate23QMetaTypeFunctionHelperI5QListI11QModelIndexELb1EE9ConstructEPvPKv@Base 2.0.0
 (optional=templinst)_ZN17QtMetaTypePrivate23QMetaTypeFunctionHelperI5QListI21QPersistentModelIndexELb1EE8DestructEPv@Base 2.0.0
 (optional=templinst)_ZN17QtMetaTypePrivate23QMetaTypeFunctionHelperI5QListI21QPersistentModelIndexELb1EE9ConstructEPvPKv@Base 2.0.0
 (optional=templinst)_ZN17QtMetaTypePrivate23QMetaTypeFunctionHelperIN18QAbstractItemModel16LayoutChangeHintELb1EE8DestructEPv@Base 2.0.0
 (optional=templinst)_ZN17QtMetaTypePrivate23QMetaTypeFunctionHelperIN18QAbstractItemModel16LayoutChangeHintELb1EE9ConstructEPvPKv@Base 2.0.0
 (optional=templinst)_ZN17QtMetaTypePrivate23QMetaTypeFunctionHelperIN5Peony13FileOperation12ResponseTypeELb1EE8DestructEPv@Base 2.0.0
 (optional=templinst)_ZN17QtMetaTypePrivate23QMetaTypeFunctionHelperIN5Peony13FileOperation12ResponseTypeELb1EE9ConstructEPvPKv@Base 2.0.0
 (optional=templinst)_ZN17QtMetaTypePrivate23QMetaTypeFunctionHelperINS_23QSequentialIterableImplELb1EE8DestructEPv@Base 2.0.0
 (optional=templinst)_ZN17QtMetaTypePrivate23QMetaTypeFunctionHelperINS_23QSequentialIterableImplELb1EE9ConstructEPvPKv@Base 2.0.0
 (optional=templinst)_ZN17QtMetaTypePrivate23QMetaTypeFunctionHelperIP13FileLabelItemLb1EE8DestructEPv@Base 2.1.0
 (optional=templinst)_ZN17QtMetaTypePrivate23QMetaTypeFunctionHelperIP13FileLabelItemLb1EE9ConstructEPvPKv@Base 2.1.0
 (optional=templinst)_ZN17QtMetaTypePrivate23QMetaTypeFunctionHelperIPN5Peony13FileItemModelELb1EE8DestructEPv@Base 2.0.0
 (optional=templinst)_ZN17QtMetaTypePrivate23QMetaTypeFunctionHelperIPN5Peony13FileItemModelELb1EE9ConstructEPvPKv@Base 2.0.0
 (optional=templinst)_ZN17QtMetaTypePrivate23QMetaTypeFunctionHelperIPN5Peony13FileOperationELb1EE8DestructEPv@Base 2.0.0
 (optional=templinst)_ZN17QtMetaTypePrivate23QMetaTypeFunctionHelperIPN5Peony13FileOperationELb1EE9ConstructEPvPKv@Base 2.0.0
 (optional=templinst)_ZN17QtMetaTypePrivate23QMetaTypeFunctionHelperIPN5Peony17FileOperationInfoELb1EE8DestructEPv@Base 2.2.0
 (optional=templinst)_ZN17QtMetaTypePrivate23QMetaTypeFunctionHelperIPN5Peony17FileOperationInfoELb1EE9ConstructEPvPKv@Base 2.2.0
 (optional=templinst)_ZN17QtMetaTypePrivate23QMetaTypeFunctionHelperIPN5Peony28FileItemProxyFilterSortModelELb1EE8DestructEPv@Base 2.0.0
 (optional=templinst)_ZN17QtMetaTypePrivate23QMetaTypeFunctionHelperIPN5Peony28FileItemProxyFilterSortModelELb1EE9ConstructEPvPKv@Base 2.0.0
 (optional=templinst)_ZN17QtMetaTypePrivate23QMetaTypeFunctionHelperISt10shared_ptrIN5Peony13GErrorWrapperEELb1EE8DestructEPv@Base 2.0.0
 (optional=templinst)_ZN17QtMetaTypePrivate23QMetaTypeFunctionHelperISt10shared_ptrIN5Peony13GErrorWrapperEELb1EE9ConstructEPvPKv@Base 2.0.0
 (optional=templinst)_ZN17QtMetaTypePrivate23QSequentialIterableImpl13moveToEndImplI5QListI11QModelIndexEEEvPKvPPv@Base 2.0.0
 (optional=templinst)_ZN17QtMetaTypePrivate23QSequentialIterableImpl13moveToEndImplI5QListI21QPersistentModelIndexEEEvPKvPPv@Base 2.0.0
 (optional=templinst)_ZN17QtMetaTypePrivate23QSequentialIterableImpl15moveToBeginImplI5QListI11QModelIndexEEEvPKvPPv@Base 2.0.0
 (optional=templinst)_ZN17QtMetaTypePrivate23QSequentialIterableImpl15moveToBeginImplI5QListI21QPersistentModelIndexEEEvPKvPPv@Base 2.0.0
 (optional=templinst)_ZN17QtMetaTypePrivate23QSequentialIterableImpl6atImplI5QListI11QModelIndexEEEPKvS6_i@Base 2.0.0
 (optional=templinst)_ZN17QtMetaTypePrivate23QSequentialIterableImpl6atImplI5QListI21QPersistentModelIndexEEEPKvS6_i@Base 2.0.0
 (optional=templinst)_ZN17QtMetaTypePrivate23QSequentialIterableImpl7getImplI5QListI11QModelIndexEEENS_11VariantDataEPKPvij@Base 2.0.0
 (optional=templinst)_ZN17QtMetaTypePrivate23QSequentialIterableImpl7getImplI5QListI21QPersistentModelIndexEEENS_11VariantDataEPKPvij@Base 2.0.0
 (optional=templinst)_ZN17QtMetaTypePrivate23QSequentialIterableImpl8sizeImplI5QListI11QModelIndexEEEiPKv@Base 2.0.0
 (optional=templinst)_ZN17QtMetaTypePrivate23QSequentialIterableImpl8sizeImplI5QListI21QPersistentModelIndexEEEiPKv@Base 2.0.0
 _ZN18BorderShadowEffect10setPaddingEi@Base 2.1.0
 _ZN18BorderShadowEffect11qt_metacallEN11QMetaObject4CallEiPPv@Base 2.1.0
 _ZN18BorderShadowEffect11qt_metacastEPKc@Base 2.1.0
 _ZN18BorderShadowEffect13setBlurRadiusEi@Base 2.1.0
 _ZN18BorderShadowEffect14setShadowColorERK6QColor@Base 2.1.0
 _ZN18BorderShadowEffect15setBorderRadiusEi@Base 2.1.0
 _ZN18BorderShadowEffect15setBorderRadiusEii@Base 2.1.0
 _ZN18BorderShadowEffect16staticMetaObjectE@Base 2.1.0
 _ZN18BorderShadowEffect18setTransParentPathERK12QPainterPath@Base 2.1.0
 _ZN18BorderShadowEffect19setWindowBackgroundERK6QColor@Base 2.1.0
 _ZN18BorderShadowEffect20setTransParentAreaBgERK6QColor@Base 2.1.0
 _ZN18BorderShadowEffect24drawWindowShadowManuallyEP8QPainterRK5QRectb@Base 2.1.0
 _ZN18BorderShadowEffect4drawEP8QPainter@Base 2.1.0
 _ZN18BorderShadowEffectC1EP7QObject@Base 2.1.0
 _ZN18BorderShadowEffectC2EP7QObject@Base 2.1.0
 _ZN18BorderShadowEffectD0Ev@Base 2.1.0
 _ZN18BorderShadowEffectD1Ev@Base 2.1.0
 _ZN18BorderShadowEffectD2Ev@Base 2.1.0
 _ZN18GenericThumbnailer11qt_metacallEN11QMetaObject4CallEiPPv@Base 2.1.0
 _ZN18GenericThumbnailer11qt_metacastEPKc@Base 2.1.0
 _ZN18GenericThumbnailer16staticMetaObjectE@Base 2.1.0
 _ZN18GenericThumbnailer17generateThumbnailERK4QUrlbRK5QSize@Base 2.1.0
 _ZN18GenericThumbnailer17generateThumbnailERK7QPixmapbRK5QSize@Base 2.1.0
 _ZN18GenericThumbnailer17generateThumbnailERK7QStringbRK5QSize@Base 2.1.0
 _ZN18GenericThumbnailerC1EP7QObject@Base 2.1.0
 _ZN18GenericThumbnailerC2EP7QObject@Base 2.1.0
 _ZN18GenericThumbnailerD0Ev@Base 2.1.0
 _ZN18GenericThumbnailerD1Ev@Base 2.1.0
 _ZN18GenericThumbnailerD2Ev@Base 2.1.0
 (optional=templinst)_ZN18QAlgorithmsPrivate11qSortHelperIN5QListI7QStringE8iteratorES2_5qLessIS2_EEEvT_S7_RKT0_T1_@Base 2.1.0
 _ZN18QStyleOptionButtonD1Ev@Base 2.1.0
 _ZN18QStyleOptionButtonD2Ev@Base 2.1.0
 _ZN19ConnectServerDialog11qt_metacallEN11QMetaObject4CallEiPPv@Base 2.0.0
 _ZN19ConnectServerDialog11qt_metacastEPKc@Base 2.0.0
 _ZN19ConnectServerDialog12savePasswordEv@Base 2.0.0
 _ZN19ConnectServerDialog16staticMetaObjectE@Base 2.0.0
 _ZN19ConnectServerDialog4userEv@Base 2.0.0
 _ZN19ConnectServerDialog6domainEv@Base 2.0.0
 _ZN19ConnectServerDialog8passwordEv@Base 2.0.0
 _ZN19ConnectServerDialog9anonymousEv@Base 2.0.0
 _ZN19ConnectServerDialogC1EP7QWidget@Base 2.0.0
 _ZN19ConnectServerDialogC2EP7QWidget@Base 2.0.0
 _ZN19ConnectServerDialogD0Ev@Base 2.0.0
 _ZN19ConnectServerDialogD1Ev@Base 2.0.0
 _ZN19ConnectServerDialogD2Ev@Base 2.0.0
 _ZN20QStyleOptionViewItemD1Ev@Base 2.0.0
 _ZN20QStyleOptionViewItemD2Ev@Base 2.0.0
 _ZN22LocationBarButtonStyle6polishEP7QWidget@Base 2.2.0
 _ZN22LocationBarButtonStyle8unpolishEP7QWidget@Base 2.2.0
 _ZN22LocationBarButtonStyleD0Ev@Base 2.2.0
 _ZN22LocationBarButtonStyleD1Ev@Base 2.2.0
 _ZN22LocationBarButtonStyleD2Ev@Base 2.2.0
 _ZN22QStyleOptionToolButtonD1Ev@Base 2.0.0
 _ZN22QStyleOptionToolButtonD2Ev@Base 2.0.0
 (arch= !s390x)_ZN22Ui_ConnectServerDialog7setupUiEP7QDialog@Base 2.0.0
 (optional=templinst|arch= !s390x !ppc64el)_ZN4QMapI7QString8QVariantE13detach_helperEv@Base 2.0.0
 (optional=templinst)_ZN4QMapI7QString8QVariantE6removeERKS0_@Base 2.0.0
 (optional=templinst)_ZN4QMapI7QString8QVariantED1Ev@Base 2.0.0
 (optional=templinst)_ZN4QMapI7QString8QVariantED2Ev@Base 2.0.0
 (optional=templinst)_ZN4QMapI7QStringP11QToolButtonE13detach_helperEv@Base 2.2.0
 (optional=templinst)_ZN4QMapI7QStringS0_E13detach_helperEv@Base 2.1.0
 (optional=templinst)_ZN4QMapI7QStringS0_EC1ERKS1_@Base 2.1.0
 (optional=templinst)_ZN4QMapI7QStringS0_EC2ERKS1_@Base 2.1.0
 (optional=templinst)_ZN4QMapI7QStringS0_ED1Ev@Base 2.1.0
 (optional=templinst)_ZN4QMapI7QStringS0_ED2Ev@Base 2.1.0
 (optional=templinst|arch= !s390x !ppc64el)_ZN4QMapIi7QStringE13detach_helperEv@Base 2.0.0
 _ZN5Peony10wrapGDriveEP7_GDrive@Base 2.0.0
 _ZN5Peony10wrapGMountEP7_GMount@Base 2.0.0
 _ZN5Peony11FileInfoJob10queryAsyncEv@Base 2.0.0
 _ZN5Peony11FileInfoJob11infoUpdatedEv@Base 2.0.0
 _ZN5Peony11FileInfoJob11qt_metacallEN11QMetaObject4CallEiPPv@Base 2.0.0
 _ZN5Peony11FileInfoJob11qt_metacastEPKc@Base 2.0.0
 _ZN5Peony11FileInfoJob16staticMetaObjectE@Base 2.0.0
 _ZN5Peony11FileInfoJob18queryAsyncFinishedEb@Base 2.0.0
 _ZN5Peony11FileInfoJob19refreshInfoContentsEP10_GFileInfo@Base 2.0.0
 _ZN5Peony11FileInfoJob25query_info_async_callbackEP6_GFileP13_GAsyncResultPS0_@Base 2.0.0
 _ZN5Peony11FileInfoJob6cancelEv@Base 2.0.0
 _ZN5Peony11FileInfoJob9querySyncEv@Base 2.0.0
 _ZN5Peony11FileInfoJobC1ERK7QStringP7QObject@Base 2.0.0
 _ZN5Peony11FileInfoJobC1ESt10shared_ptrINS_8FileInfoEEP7QObject@Base 2.0.0
 _ZN5Peony11FileInfoJobC2ERK7QStringP7QObject@Base 2.0.0
 _ZN5Peony11FileInfoJobC2ESt10shared_ptrINS_8FileInfoEEP7QObject@Base 2.0.0
 _ZN5Peony11FileInfoJobD0Ev@Base 2.0.0
 _ZN5Peony11FileInfoJobD1Ev@Base 2.0.0
 _ZN5Peony11FileInfoJobD2Ev@Base 2.0.0
 _ZN5Peony11FileWatcher11fileChangedERK7QString@Base 2.0.0
 _ZN5Peony11FileWatcher11fileCreatedERK7QString@Base 2.0.0
 _ZN5Peony11FileWatcher11fileDeletedERK7QString@Base 2.0.0
 _ZN5Peony11FileWatcher11qt_metacallEN11QMetaObject4CallEiPPv@Base 2.0.0
 _ZN5Peony11FileWatcher11qt_metacastEPKc@Base 2.0.0
 _ZN5Peony11FileWatcher11stopMonitorEv@Base 2.0.0
 _ZN5Peony11FileWatcher12startMonitorEv@Base 2.0.0
 _ZN5Peony11FileWatcher15locationChangedERK7QStringS3_@Base 2.0.0
 _ZN5Peony11FileWatcher16changeMonitorUriE7QString@Base 2.0.0
 _ZN5Peony11FileWatcher16directoryDeletedERK7QString@Base 2.0.0
 _ZN5Peony11FileWatcher16staticMetaObjectE@Base 2.0.0
 _ZN5Peony11FileWatcher16thumbnailUpdatedERK7QString@Base 2.0.0
 _ZN5Peony11FileWatcher18directoryUnmountedERK7QString@Base 2.0.0
 _ZN5Peony11FileWatcher20dir_changed_callbackEP13_GFileMonitorP6_GFileS4_17GFileMonitorEventPS0_@Base 2.0.0
 _ZN5Peony11FileWatcher21file_changed_callbackEP13_GFileMonitorP6_GFileS4_17GFileMonitorEventPS0_@Base 2.0.0
 _ZN5Peony11FileWatcher22requestUpdateDirectoryEv@Base 2.2.0
 _ZN5Peony11FileWatcher6cancelEv@Base 2.0.0
 _ZN5Peony11FileWatcher7prepareEv@Base 2.0.0
 _ZN5Peony11FileWatcherC1E7QStringP7QObject@Base 2.0.0
 _ZN5Peony11FileWatcherC2E7QStringP7QObject@Base 2.0.0
 _ZN5Peony11FileWatcherD0Ev@Base 2.0.0
 _ZN5Peony11FileWatcherD1Ev@Base 2.0.0
 _ZN5Peony11FileWatcherD2Ev@Base 2.0.0
 _ZN5Peony11LocationBar10paintEventEP11QPaintEvent@Base 2.0.0
 _ZN5Peony11LocationBar10setRootUriERK7QString@Base 2.0.0
 _ZN5Peony11LocationBar11qt_metacallEN11QMetaObject4CallEiPPv@Base 2.0.0
 _ZN5Peony11LocationBar11qt_metacastEPKc@Base 2.0.0
 _ZN5Peony11LocationBar11resizeEventEP12QResizeEvent@Base 2.2.0
 _ZN5Peony11LocationBar12blankClickedEv@Base 2.0.0
 _ZN5Peony11LocationBar12clearButtonsEv@Base 2.2.0
 _ZN5Peony11LocationBar15mousePressEventEP11QMouseEvent@Base 2.0.0
 _ZN5Peony11LocationBar16staticMetaObjectE@Base 2.0.0
 _ZN5Peony11LocationBar19groupChangedRequestERK7QString@Base 2.0.0
 _ZN5Peony11LocationBar8doLayoutEv@Base 2.2.0
 _ZN5Peony11LocationBar9addButtonERK7QStringbb@Base 2.0.0
 _ZN5Peony11LocationBarC1EP7QWidget@Base 2.0.0
 _ZN5Peony11LocationBarC2EP7QWidget@Base 2.0.0
 _ZN5Peony11LocationBarD0Ev@Base 2.0.0
 _ZN5Peony11LocationBarD1Ev@Base 2.0.0
 _ZN5Peony11LocationBarD2Ev@Base 2.0.0
 _ZN5Peony11SideBarMenu11qt_metacallEN11QMetaObject4CallEiPPv@Base 2.0.0
 _ZN5Peony11SideBarMenu11qt_metacastEPKc@Base 2.0.0
 _ZN5Peony11SideBarMenu16staticMetaObjectE@Base 2.0.0
 _ZN5Peony11SideBarMenu24constructFavoriteActionsEv@Base 2.0.0
 _ZN5Peony11SideBarMenu24constructPersonalActionsEv@Base 2.0.0
 _ZN5Peony11SideBarMenu30constructFileSystemItemActionsEv@Base 2.0.0
 _ZN5Peony11SideBarMenuC1EPNS_19SideBarAbstractItemEPNS_7SideBarEP7QWidget@Base 2.0.0
 _ZN5Peony11SideBarMenuC2EPNS_19SideBarAbstractItemEPNS_7SideBarEP7QWidget@Base 2.0.0
 _ZN5Peony11SideBarMenuD0Ev@Base 2.0.0
 _ZN5Peony11SideBarMenuD1Ev@Base 2.0.0
 _ZN5Peony11SideBarMenuD2Ev@Base 2.0.0
 _ZN5Peony11wrapGVolumeEP8_GVolume@Base 2.0.0
 _ZN5Peony12FileMetaInfo13fromGFileInfoERK7QStringP10_GFileInfo@Base 2.0.0
 _ZN5Peony12FileMetaInfo14getMetaInfoIntERK7QString@Base 2.0.0
 _ZN5Peony12FileMetaInfo14removeMetaInfoERK7QString@Base 2.0.0
 _ZN5Peony12FileMetaInfo14setMetaInfoIntERK7QStringi@Base 2.0.0
 _ZN5Peony12FileMetaInfo17getMetaInfoStringERK7QString@Base 2.0.0
 _ZN5Peony12FileMetaInfo17setMetaInfoStringERK7QStringS3_@Base 2.0.0
 _ZN5Peony12FileMetaInfo18getMetaInfoVariantERK7QString@Base 2.0.0
 _ZN5Peony12FileMetaInfo18setMetaInfoVariantERK7QStringRK8QVariant@Base 2.0.0
 _ZN5Peony12FileMetaInfo21getMetaInfoStringListERK7QString@Base 2.0.0
 _ZN5Peony12FileMetaInfo21setMetaInfoStringListERK7QStringRK11QStringList@Base 2.0.0
 _ZN5Peony12FileMetaInfo7fromUriERK7QString@Base 2.0.0
 _ZN5Peony12FileMetaInfoC1ERK7QStringP10_GFileInfo@Base 2.0.0
 _ZN5Peony12FileMetaInfoC2ERK7QStringP10_GFileInfo@Base 2.0.0
 _ZN5Peony12PathBarModel10setRootUriERK7QStringb@Base 2.0.0
 _ZN5Peony12PathBarModel11qt_metacallEN11QMetaObject4CallEiPPv@Base 2.0.0
 _ZN5Peony12PathBarModel11qt_metacastEPKc@Base 2.0.0
 _ZN5Peony12PathBarModel11setRootPathERK7QStringb@Base 2.0.0
 _ZN5Peony12PathBarModel15findDisplayNameERK7QString@Base 2.0.0
 _ZN5Peony12PathBarModel16staticMetaObjectE@Base 2.0.0
 _ZN5Peony12PathBarModel7updatedEv@Base 2.0.0
 _ZN5Peony12PathBarModelC1EP7QObject@Base 2.0.0
 _ZN5Peony12PathBarModelC2EP7QObject@Base 2.0.0
 _ZN5Peony12PathBarModelD0Ev@Base 2.0.0
 _ZN5Peony12PathBarModelD1Ev@Base 2.0.0
 _ZN5Peony12PathBarModelD2Ev@Base 2.0.0
 _ZN5Peony12SideBarModel10insertRowsEiiRK11QModelIndex@Base 2.0.0
 _ZN5Peony12SideBarModel10removeRowsEiiRK11QModelIndex@Base 2.0.0
 _ZN5Peony12SideBarModel11qt_metacallEN11QMetaObject4CallEiPPv@Base 2.0.0
 _ZN5Peony12SideBarModel11qt_metacastEPKc@Base 2.0.0
 _ZN5Peony12SideBarModel12dropMimeDataEPK9QMimeDataN2Qt10DropActionEiiRK11QModelIndex@Base 2.0.0
 _ZN5Peony12SideBarModel12indexUpdatedERK11QModelIndex@Base 2.0.0
 _ZN5Peony12SideBarModel13insertColumnsEiiRK11QModelIndex@Base 2.0.0
 _ZN5Peony12SideBarModel13itemFromIndexERK11QModelIndex@Base 2.0.0
 _ZN5Peony12SideBarModel13removeColumnsEiiRK11QModelIndex@Base 2.0.0
 _ZN5Peony12SideBarModel13setHeaderDataEiN2Qt11OrientationERK8QVarianti@Base 2.0.0
 _ZN5Peony12SideBarModel14onIndexUpdatedERK11QModelIndex@Base 2.0.0
 _ZN5Peony12SideBarModel15lastCloumnIndexEPNS_19SideBarAbstractItemE@Base 2.0.0
 _ZN5Peony12SideBarModel16firstCloumnIndexEPNS_19SideBarAbstractItemE@Base 2.0.0
 _ZN5Peony12SideBarModel16staticMetaObjectE@Base 2.0.0
 _ZN5Peony12SideBarModel7setDataERK11QModelIndexRK8QVarianti@Base 2.0.0
 _ZN5Peony12SideBarModel9fetchMoreERK11QModelIndex@Base 2.0.0
 _ZN5Peony12SideBarModelC1EP7QObject@Base 2.0.0
 _ZN5Peony12SideBarModelC2EP7QObject@Base 2.0.0
 _ZN5Peony12SideBarModelD0Ev@Base 2.0.0
 _ZN5Peony12SideBarModelD1Ev@Base 2.0.0
 _ZN5Peony12SideBarModelD2Ev@Base 2.0.0
 _ZN5Peony12ThumbnailJob11qt_metacallEN11QMetaObject4CallEiPPv@Base 2.1.0
 _ZN5Peony12ThumbnailJob11qt_metacastEPKc@Base 2.1.0
 _ZN5Peony12ThumbnailJob16staticMetaObjectE@Base 2.1.0
 _ZN5Peony12ThumbnailJob3runEv@Base 2.1.0
 _ZN5Peony12ThumbnailJobC1ERK7QStringSt10shared_ptrINS_11FileWatcherEEP7QObject@Base 2.1.0
 _ZN5Peony12ThumbnailJobC2ERK7QStringSt10shared_ptrINS_11FileWatcherEEP7QObject@Base 2.1.0
 _ZN5Peony12ThumbnailJobD0Ev@Base 2.1.0
 _ZN5Peony12ThumbnailJobD1Ev@Base 2.1.0
 _ZN5Peony12ThumbnailJobD2Ev@Base 2.1.0
 _ZN5Peony13DirectoryView13IconViewStyle11qt_metacallEN11QMetaObject4CallEiPPv@Base 2.0.0
 _ZN5Peony13DirectoryView13IconViewStyle11qt_metacastEPKc@Base 2.0.0
 _ZN5Peony13DirectoryView13IconViewStyle16staticMetaObjectE@Base 2.0.0
 _ZN5Peony13DirectoryView13IconViewStyle7releaseEv@Base 2.0.0
 _ZN5Peony13DirectoryView13IconViewStyle8getStyleEv@Base 2.0.0
 _ZN5Peony13DirectoryView13IconViewStyleC1EP6QStyle@Base 2.0.0
 _ZN5Peony13DirectoryView13IconViewStyleC2EP6QStyle@Base 2.0.0
 _ZN5Peony13DirectoryView13IconViewStyleD0Ev@Base 2.0.0
 _ZN5Peony13DirectoryView13IconViewStyleD1Ev@Base 2.0.0
 _ZN5Peony13DirectoryView13IconViewStyleD2Ev@Base 2.0.0
 _ZN5Peony13DirectoryView13ListViewStyle11qt_metacallEN11QMetaObject4CallEiPPv@Base 2.2.0
 _ZN5Peony13DirectoryView13ListViewStyle11qt_metacastEPKc@Base 2.2.0
 _ZN5Peony13DirectoryView13ListViewStyle16staticMetaObjectE@Base 2.2.0
 _ZN5Peony13DirectoryView13ListViewStyle8getStyleEv@Base 2.2.0
 _ZN5Peony13DirectoryView13ListViewStyleC1EP7QObject@Base 2.2.0
 _ZN5Peony13DirectoryView13ListViewStyleC2EP7QObject@Base 2.2.0
 _ZN5Peony13DirectoryView13ListViewStyleD0Ev@Base 2.2.0
 _ZN5Peony13DirectoryView13ListViewStyleD1Ev@Base 2.2.0
 _ZN5Peony13DirectoryView13ListViewStyleD2Ev@Base 2.2.0
 _ZN5Peony13DirectoryView14IconViewEditor10paintEventEP11QPaintEvent@Base 2.0.0
 _ZN5Peony13DirectoryView14IconViewEditor11qt_metacallEN11QMetaObject4CallEiPPv@Base 2.0.0
 _ZN5Peony13DirectoryView14IconViewEditor11qt_metacastEPKc@Base 2.0.0
 _ZN5Peony13DirectoryView14IconViewEditor13keyPressEventEP9QKeyEvent@Base 2.0.0
 _ZN5Peony13DirectoryView14IconViewEditor13minimalAdjustEv@Base 2.0.0
 _ZN5Peony13DirectoryView14IconViewEditor13returnPressedEv@Base 2.0.0
 _ZN5Peony13DirectoryView14IconViewEditor16staticMetaObjectE@Base 2.0.0
 _ZN5Peony13DirectoryView14IconViewEditorC1EP7QWidget@Base 2.0.0
 _ZN5Peony13DirectoryView14IconViewEditorC2EP7QWidget@Base 2.0.0
 _ZN5Peony13DirectoryView14IconViewEditorD0Ev@Base 2.0.0
 _ZN5Peony13DirectoryView14IconViewEditorD1Ev@Base 2.0.0
 _ZN5Peony13DirectoryView14IconViewEditorD2Ev@Base 2.0.0
 _ZN5Peony13DirectoryView16IconViewDelegate11qt_metacallEN11QMetaObject4CallEiPPv@Base 2.0.0
 _ZN5Peony13DirectoryView16IconViewDelegate11qt_metacastEPKc@Base 2.0.0
 _ZN5Peony13DirectoryView16IconViewDelegate11setCutFilesERK5QListI11QModelIndexE@Base 2.0.0
 _ZN5Peony13DirectoryView16IconViewDelegate16staticMetaObjectE@Base 2.0.0
 _ZN5Peony13DirectoryView16IconViewDelegateC1EP7QObject@Base 2.0.0
 _ZN5Peony13DirectoryView16IconViewDelegateC2EP7QObject@Base 2.0.0
 _ZN5Peony13DirectoryView16IconViewDelegateD0Ev@Base 2.0.0
 _ZN5Peony13DirectoryView16IconViewDelegateD1Ev@Base 2.0.0
 _ZN5Peony13DirectoryView16IconViewDelegateD2Ev@Base 2.0.0
#MISSING: 2.1.0# _ZN5Peony13DirectoryView17StandardViewProxy10closeProxyEv@Base 2.0.0
#MISSING: 2.1.0# _ZN5Peony13DirectoryView17StandardViewProxy10switchViewEPNS_18DirectoryViewIfaceE@Base 2.0.0
#MISSING: 2.1.0# _ZN5Peony13DirectoryView17StandardViewProxy11getSortTypeEv@Base 2.0.0
#MISSING: 2.1.0# _ZN5Peony13DirectoryView17StandardViewProxy11qt_metacallEN11QMetaObject4CallEiPPv@Base 2.0.0
#MISSING: 2.1.0# _ZN5Peony13DirectoryView17StandardViewProxy11qt_metacastEPKc@Base 2.0.0
#MISSING: 2.1.0# _ZN5Peony13DirectoryView17StandardViewProxy11setCutFilesERK11QStringList@Base 2.0.0
#MISSING: 2.1.0# _ZN5Peony13DirectoryView17StandardViewProxy11setSortTypeEi@Base 2.0.0
#MISSING: 2.1.0# _ZN5Peony13DirectoryView17StandardViewProxy12getSortOrderEv@Base 2.0.0
#MISSING: 2.1.0# _ZN5Peony13DirectoryView17StandardViewProxy12setSortOrderEi@Base 2.0.0
#MISSING: 2.1.0# _ZN5Peony13DirectoryView17StandardViewProxy13getSelectionsEv@Base 2.0.0
#MISSING: 2.1.0# _ZN5Peony13DirectoryView17StandardViewProxy13setSelectionsERK11QStringList@Base 2.0.0
#MISSING: 2.1.0# _ZN5Peony13DirectoryView17StandardViewProxy14getAllFileUrisEv@Base 2.0.0
#MISSING: 2.1.0# _ZN5Peony13DirectoryView17StandardViewProxy15getDirectoryUriEv@Base 2.0.0
#MISSING: 2.1.0# _ZN5Peony13DirectoryView17StandardViewProxy15setDirectoryUriERK7QString@Base 2.0.0
#MISSING: 2.1.0# _ZN5Peony13DirectoryView17StandardViewProxy16invertSelectionsEv@Base 2.0.0
#MISSING: 2.1.0# _ZN5Peony13DirectoryView17StandardViewProxy16staticMetaObjectE@Base 2.0.0
#MISSING: 2.1.0# _ZN5Peony13DirectoryView17StandardViewProxy17scrollToSelectionERK7QString@Base 2.0.0
#MISSING: 2.1.0# _ZN5Peony13DirectoryView17StandardViewProxy18stopLocationChangeEv@Base 2.0.0
#MISSING: 2.1.0# _ZN5Peony13DirectoryView17StandardViewProxy19beginLocationChangeEv@Base 2.0.0
#MISSING: 2.1.0# _ZN5Peony13DirectoryView17StandardViewProxy4openERK11QStringListb@Base 2.0.0
#MISSING: 2.1.0# _ZN5Peony13DirectoryView17StandardViewProxy7editUriERK7QString@Base 2.0.0
#MISSING: 2.1.0# _ZN5Peony13DirectoryView17StandardViewProxy7getViewEv@Base 2.0.0
#MISSING: 2.1.0# _ZN5Peony13DirectoryView17StandardViewProxy8editUrisE11QStringList@Base 2.0.0
#MISSING: 2.1.0# _ZN5Peony13DirectoryView17StandardViewProxyC1EP7QObject@Base 2.0.0
#MISSING: 2.1.0# _ZN5Peony13DirectoryView17StandardViewProxyC1EPNS_18DirectoryViewIfaceEP7QObject@Base 2.0.0
#MISSING: 2.1.0# _ZN5Peony13DirectoryView17StandardViewProxyC2EP7QObject@Base 2.0.0
#MISSING: 2.1.0# _ZN5Peony13DirectoryView17StandardViewProxyC2EPNS_18DirectoryViewIfaceEP7QObject@Base 2.0.0
#MISSING: 2.1.0# _ZN5Peony13DirectoryView17StandardViewProxyD0Ev@Base 2.0.0
#MISSING: 2.1.0# _ZN5Peony13DirectoryView17StandardViewProxyD1Ev@Base 2.0.0
#MISSING: 2.1.0# _ZN5Peony13DirectoryView17StandardViewProxyD2Ev@Base 2.0.0
 _ZN5Peony13DirectoryView18IconViewTextHelper19getTextSizeForIndexERK20QStyleOptionViewItemRK11QModelIndexii@Base 2.1.0
 _ZN5Peony13DirectoryView18IconViewTextHelper9paintTextEP8QPainterRK20QStyleOptionViewItemRK11QModelIndexiiib@Base 2.1.0
 _ZN5Peony13DirectoryView19IconViewIndexWidget10paintEventEP11QPaintEvent@Base 2.0.0
 _ZN5Peony13DirectoryView19IconViewIndexWidget11qt_metacallEN11QMetaObject4CallEiPPv@Base 2.0.0
 _ZN5Peony13DirectoryView19IconViewIndexWidget11qt_metacastEPKc@Base 2.0.0
 _ZN5Peony13DirectoryView19IconViewIndexWidget14mouseMoveEventEP11QMouseEvent@Base 2.2.0
 _ZN5Peony13DirectoryView19IconViewIndexWidget15mousePressEventEP11QMouseEvent@Base 2.0.0
 _ZN5Peony13DirectoryView19IconViewIndexWidget16staticMetaObjectE@Base 2.0.0
 _ZN5Peony13DirectoryView19IconViewIndexWidget17mouseReleaseEventEP11QMouseEvent@Base 2.2.0
 _ZN5Peony13DirectoryView19IconViewIndexWidget21mouseDoubleClickEventEP11QMouseEvent@Base 2.1.0
 _ZN5Peony13DirectoryView19IconViewIndexWidget9adjustPosEv@Base 2.1.0
 _ZN5Peony13DirectoryView19IconViewIndexWidgetC1EPKNS0_16IconViewDelegateERK20QStyleOptionViewItemRK11QModelIndexP7QWidget@Base 2.0.0
 _ZN5Peony13DirectoryView19IconViewIndexWidgetC2EPKNS0_16IconViewDelegateERK20QStyleOptionViewItemRK11QModelIndexP7QWidget@Base 2.0.0
 _ZN5Peony13DirectoryView19IconViewIndexWidgetD0Ev@Base 2.0.0
 _ZN5Peony13DirectoryView19IconViewIndexWidgetD1Ev@Base 2.0.0
 _ZN5Peony13DirectoryView19IconViewIndexWidgetD2Ev@Base 2.0.0
 _ZN5Peony13DirectoryView8IconView10paintEventEP11QPaintEvent@Base 2.0.0
 _ZN5Peony13DirectoryView8IconView10slotRenameEv@Base 2.1.0
 _ZN5Peony13DirectoryView8IconView10wheelEventEP11QWheelEvent@Base 2.0.0
 _ZN5Peony13DirectoryView8IconView11getSortTypeEv@Base 2.0.0
 _ZN5Peony13DirectoryView8IconView11qt_metacallEN11QMetaObject4CallEiPPv@Base 2.0.0
 _ZN5Peony13DirectoryView8IconView11qt_metacastEPKc@Base 2.0.0
 _ZN5Peony13DirectoryView8IconView11resizeEventEP12QResizeEvent@Base 2.0.0
 _ZN5Peony13DirectoryView8IconView11setCutFilesERK11QStringList@Base 2.0.0
 _ZN5Peony13DirectoryView8IconView11setSortTypeEi@Base 2.0.0
 _ZN5Peony13DirectoryView8IconView12getSortOrderEv@Base 2.0.0
 _ZN5Peony13DirectoryView8IconView12setSortOrderEi@Base 2.0.0
 _ZN5Peony13DirectoryView8IconView13dragMoveEventEP14QDragMoveEvent@Base 2.0.0
 _ZN5Peony13DirectoryView8IconView13getSelectionsEv@Base 2.0.0
 _ZN5Peony13DirectoryView8IconView13setSelectionsERK11QStringList@Base 2.0.0
 _ZN5Peony13DirectoryView8IconView14dragEnterEventEP15QDragEnterEvent@Base 2.0.0
 _ZN5Peony13DirectoryView8IconView14getAllFileUrisEv@Base 2.0.0
 _ZN5Peony13DirectoryView8IconView15getDirectoryUriEv@Base 2.0.0
 _ZN5Peony13DirectoryView8IconView15mousePressEventEP11QMouseEvent@Base 2.0.0
 _ZN5Peony13DirectoryView8IconView15setDirectoryUriERK7QString@Base 2.0.0
 _ZN5Peony13DirectoryView8IconView16clearIndexWidgetEv@Base 2.0.0
 _ZN5Peony13DirectoryView8IconView16invertSelectionsEv@Base 2.0.0
 _ZN5Peony13DirectoryView8IconView16staticMetaObjectE@Base 2.0.0
 _ZN5Peony13DirectoryView8IconView16updateGeometriesEv@Base 2.1.0
 _ZN5Peony13DirectoryView8IconView17mouseReleaseEventEP11QMouseEvent@Base 2.0.0
 _ZN5Peony13DirectoryView8IconView17scrollToSelectionERK7QString@Base 2.0.0
 _ZN5Peony13DirectoryView8IconView18stopLocationChangeEv@Base 2.0.0
 _ZN5Peony13DirectoryView8IconView19beginLocationChangeEv@Base 2.0.0
 _ZN5Peony13DirectoryView8IconView21mouseDoubleClickEventEP11QMouseEvent@Base 2.1.0
#MISSING: 2.1.0# _ZN5Peony13DirectoryView8IconView21resetEditTriggerTimerEv@Base 2.0.0
 _ZN5Peony13DirectoryView8IconView23zoomLevelChangedRequestEb@Base 2.1.0
 _ZN5Peony13DirectoryView8IconView26reportViewDirectoryChangedEv@Base 2.0.0
 _ZN5Peony13DirectoryView8IconView4openERK11QStringListb@Base 2.0.0
 _ZN5Peony13DirectoryView8IconView6resortEv@Base 2.0.0
 _ZN5Peony13DirectoryView8IconView6viewIdEv@Base 2.0.0
 _ZN5Peony13DirectoryView8IconView7editUriERK7QString@Base 2.0.0
 _ZN5Peony13DirectoryView8IconView8editUrisE11QStringList@Base 2.0.0
 _ZN5Peony13DirectoryView8IconView8getProxyEv@Base 2.0.0
 _ZN5Peony13DirectoryView8IconView8setProxyEPNS_23DirectoryViewProxyIfaceE@Base 2.0.0
 _ZN5Peony13DirectoryView8IconView9bindModelEPNS_13FileItemModelEPNS_28FileItemProxyFilterSortModelE@Base 2.0.0
 _ZN5Peony13DirectoryView8IconView9closeViewEv@Base 2.0.0
 _ZN5Peony13DirectoryView8IconView9dropEventEP10QDropEvent@Base 2.0.0
 _ZN5Peony13DirectoryView8IconViewC1EP7QWidget@Base 2.0.0
 _ZN5Peony13DirectoryView8IconViewC2EP7QWidget@Base 2.0.0
 _ZN5Peony13DirectoryView8IconViewD0Ev@Base 2.0.0
 _ZN5Peony13DirectoryView8IconViewD1Ev@Base 2.0.0
 _ZN5Peony13DirectoryView8IconViewD2Ev@Base 2.0.0
 _ZN5Peony13DirectoryView8ListView10slotRenameEv@Base 2.1.0
 _ZN5Peony13DirectoryView8ListView10wheelEventEP11QWheelEvent@Base 2.1.0
 _ZN5Peony13DirectoryView8ListView11getSortTypeEv@Base 2.0.0
 _ZN5Peony13DirectoryView8ListView11qt_metacallEN11QMetaObject4CallEiPPv@Base 2.0.0
 _ZN5Peony13DirectoryView8ListView11qt_metacastEPKc@Base 2.0.0
 _ZN5Peony13DirectoryView8ListView11resizeEventEP12QResizeEvent@Base 2.1.0
 _ZN5Peony13DirectoryView8ListView11setCutFilesERK11QStringList@Base 2.0.0
 _ZN5Peony13DirectoryView8ListView11setSortTypeEi@Base 2.0.0
 _ZN5Peony13DirectoryView8ListView12getSortOrderEv@Base 2.0.0
 _ZN5Peony13DirectoryView8ListView12setSortOrderEi@Base 2.0.0
 _ZN5Peony13DirectoryView8ListView13getSelectionsEv@Base 2.0.0
 _ZN5Peony13DirectoryView8ListView13setSelectionsERK11QStringList@Base 2.0.0
 _ZN5Peony13DirectoryView8ListView14dragEnterEventEP15QDragEnterEvent@Base 2.1.0
 _ZN5Peony13DirectoryView8ListView14getAllFileUrisEv@Base 2.0.0
 _ZN5Peony13DirectoryView8ListView15getDirectoryUriEv@Base 2.0.0
 _ZN5Peony13DirectoryView8ListView15mousePressEventEP11QMouseEvent@Base 2.0.0
 _ZN5Peony13DirectoryView8ListView15setDirectoryUriERK7QString@Base 2.0.0
 _ZN5Peony13DirectoryView8ListView16invertSelectionsEv@Base 2.0.0
 _ZN5Peony13DirectoryView8ListView16staticMetaObjectE@Base 2.0.0
 _ZN5Peony13DirectoryView8ListView16updateGeometriesEv@Base 2.1.0
 _ZN5Peony13DirectoryView8ListView17adjustColumnsSizeEv@Base 2.1.0
 _ZN5Peony13DirectoryView8ListView17mouseReleaseEventEP11QMouseEvent@Base 2.0.0
 _ZN5Peony13DirectoryView8ListView17scrollToSelectionERK7QString@Base 2.0.0
 _ZN5Peony13DirectoryView8ListView18stopLocationChangeEv@Base 2.0.0
 _ZN5Peony13DirectoryView8ListView19beginLocationChangeEv@Base 2.0.0
 _ZN5Peony13DirectoryView8ListView21mouseDoubleClickEventEP11QMouseEvent@Base 2.1.0
#MISSING: 2.1.0# _ZN5Peony13DirectoryView8ListView21resetEditTriggerTimerEv@Base 2.0.0
 _ZN5Peony13DirectoryView8ListView23zoomLevelChangedRequestEb@Base 2.1.0
 _ZN5Peony13DirectoryView8ListView26reportViewDirectoryChangedEv@Base 2.0.0
 _ZN5Peony13DirectoryView8ListView4openERK11QStringListb@Base 2.0.0
 _ZN5Peony13DirectoryView8ListView6resortEv@Base 2.0.0
 _ZN5Peony13DirectoryView8ListView6viewIdEv@Base 2.0.0
 _ZN5Peony13DirectoryView8ListView7editUriERK7QString@Base 2.0.0
 _ZN5Peony13DirectoryView8ListView8editUrisE11QStringList@Base 2.0.0
 _ZN5Peony13DirectoryView8ListView8getProxyEv@Base 2.0.0
 _ZN5Peony13DirectoryView8ListView8scrollToERK11QModelIndexN17QAbstractItemView10ScrollHintE@Base 2.2.0
 _ZN5Peony13DirectoryView8ListView8setProxyEPNS_23DirectoryViewProxyIfaceE@Base 2.0.0
 _ZN5Peony13DirectoryView8ListView9bindModelEPNS_13FileItemModelEPNS_28FileItemProxyFilterSortModelE@Base 2.0.0
 _ZN5Peony13DirectoryView8ListView9closeViewEv@Base 2.0.0
 _ZN5Peony13DirectoryView8ListView9dropEventEP10QDropEvent@Base 2.2.0
 _ZN5Peony13DirectoryView8ListViewC1EP7QWidget@Base 2.0.0
 _ZN5Peony13DirectoryView8ListViewC2EP7QWidget@Base 2.0.0
 _ZN5Peony13DirectoryView8ListViewD0Ev@Base 2.0.0
 _ZN5Peony13DirectoryView8ListViewD1Ev@Base 2.0.0
 _ZN5Peony13DirectoryView8ListViewD2Ev@Base 2.0.0
 _ZN5Peony13DirectoryView9IconView211getSortTypeEv@Base 2.0.0
 _ZN5Peony13DirectoryView9IconView211qt_metacallEN11QMetaObject4CallEiPPv@Base 2.0.0
 _ZN5Peony13DirectoryView9IconView211qt_metacastEPKc@Base 2.0.0
 _ZN5Peony13DirectoryView9IconView211repaintViewEv@Base 2.0.0
 _ZN5Peony13DirectoryView9IconView211setCutFilesERK11QStringList@Base 2.0.0
 _ZN5Peony13DirectoryView9IconView211setSortTypeEi@Base 2.0.0
 _ZN5Peony13DirectoryView9IconView211supportZoomEv@Base 2.1.0
 _ZN5Peony13DirectoryView9IconView212getSortOrderEv@Base 2.0.0
 _ZN5Peony13DirectoryView9IconView212setSortOrderEi@Base 2.0.0
 _ZN5Peony13DirectoryView9IconView213getSelectionsEv@Base 2.0.0
 _ZN5Peony13DirectoryView9IconView213setSelectionsERK11QStringList@Base 2.0.0
 _ZN5Peony13DirectoryView9IconView214getAllFileUrisEv@Base 2.0.0
 _ZN5Peony13DirectoryView9IconView215getDirectoryUriEv@Base 2.0.0
 _ZN5Peony13DirectoryView9IconView215setDirectoryUriERK7QString@Base 2.0.0
 _ZN5Peony13DirectoryView9IconView216clearIndexWidgetEv@Base 2.1.0
 _ZN5Peony13DirectoryView9IconView216currentZoomLevelEv@Base 2.1.0
 _ZN5Peony13DirectoryView9IconView216invertSelectionsEv@Base 2.0.0
 _ZN5Peony13DirectoryView9IconView216maximumZoomLevelEv@Base 2.1.0
 _ZN5Peony13DirectoryView9IconView216minimumZoomLevelEv@Base 2.1.0
 _ZN5Peony13DirectoryView9IconView216staticMetaObjectE@Base 2.0.0
 _ZN5Peony13DirectoryView9IconView217scrollToSelectionERK7QString@Base 2.0.0
 _ZN5Peony13DirectoryView9IconView218closeDirectoryViewEv@Base 2.0.0
 _ZN5Peony13DirectoryView9IconView218stopLocationChangeEv@Base 2.0.0
 _ZN5Peony13DirectoryView9IconView219beginLocationChangeEv@Base 2.0.0
 _ZN5Peony13DirectoryView9IconView219setCurrentZoomLevelEi@Base 2.1.0
 _ZN5Peony13DirectoryView9IconView26viewIdEv@Base 2.0.0
 _ZN5Peony13DirectoryView9IconView27editUriERK7QString@Base 2.0.0
 _ZN5Peony13DirectoryView9IconView28editUrisE11QStringList@Base 2.0.0
 _ZN5Peony13DirectoryView9IconView29bindModelEPNS_13FileItemModelEPNS_28FileItemProxyFilterSortModelE@Base 2.0.0
 _ZN5Peony13DirectoryView9IconView2C1EP7QWidget@Base 2.0.0
 _ZN5Peony13DirectoryView9IconView2C2EP7QWidget@Base 2.0.0
 _ZN5Peony13DirectoryView9IconView2D0Ev@Base 2.0.0
 _ZN5Peony13DirectoryView9IconView2D1Ev@Base 2.0.0
 _ZN5Peony13DirectoryView9IconView2D2Ev@Base 2.0.0
 _ZN5Peony13DirectoryView9ListView211getSortTypeEv@Base 2.0.0
 _ZN5Peony13DirectoryView9ListView211qt_metacallEN11QMetaObject4CallEiPPv@Base 2.0.0
 _ZN5Peony13DirectoryView9ListView211qt_metacastEPKc@Base 2.0.0
 _ZN5Peony13DirectoryView9ListView211setCutFilesERK11QStringList@Base 2.0.0
 _ZN5Peony13DirectoryView9ListView211setSortTypeEi@Base 2.0.0
 _ZN5Peony13DirectoryView9ListView211supportZoomEv@Base 2.1.0
 _ZN5Peony13DirectoryView9ListView212getSortOrderEv@Base 2.0.0
 _ZN5Peony13DirectoryView9ListView212setSortOrderEi@Base 2.0.0
 _ZN5Peony13DirectoryView9ListView213getSelectionsEv@Base 2.0.0
 _ZN5Peony13DirectoryView9ListView213setSelectionsERK11QStringList@Base 2.0.0
 _ZN5Peony13DirectoryView9ListView214getAllFileUrisEv@Base 2.0.0
 _ZN5Peony13DirectoryView9ListView215getDirectoryUriEv@Base 2.0.0
 _ZN5Peony13DirectoryView9ListView215setDirectoryUriERK7QString@Base 2.0.0
 _ZN5Peony13DirectoryView9ListView216clearIndexWidgetEv@Base 2.1.0
 _ZN5Peony13DirectoryView9ListView216currentZoomLevelEv@Base 2.1.0
 _ZN5Peony13DirectoryView9ListView216invertSelectionsEv@Base 2.0.0
 _ZN5Peony13DirectoryView9ListView216maximumZoomLevelEv@Base 2.1.0
 _ZN5Peony13DirectoryView9ListView216minimumZoomLevelEv@Base 2.1.0
 _ZN5Peony13DirectoryView9ListView216staticMetaObjectE@Base 2.0.0
 _ZN5Peony13DirectoryView9ListView217scrollToSelectionERK7QString@Base 2.0.0
 _ZN5Peony13DirectoryView9ListView218closeDirectoryViewEv@Base 2.0.0
 _ZN5Peony13DirectoryView9ListView218stopLocationChangeEv@Base 2.0.0
 _ZN5Peony13DirectoryView9ListView219beginLocationChangeEv@Base 2.0.0
 _ZN5Peony13DirectoryView9ListView219setCurrentZoomLevelEi@Base 2.1.0
 _ZN5Peony13DirectoryView9ListView26viewIdEv@Base 2.0.0
 _ZN5Peony13DirectoryView9ListView27editUriERK7QString@Base 2.0.0
 _ZN5Peony13DirectoryView9ListView28editUrisE11QStringList@Base 2.0.0
 _ZN5Peony13DirectoryView9ListView29bindModelEPNS_13FileItemModelEPNS_28FileItemProxyFilterSortModelE@Base 2.0.0
 _ZN5Peony13DirectoryView9ListView2C1EP7QWidget@Base 2.0.0
 _ZN5Peony13DirectoryView9ListView2C2EP7QWidget@Base 2.0.0
 _ZN5Peony13DirectoryView9ListView2D0Ev@Base 2.0.0
 _ZN5Peony13DirectoryView9ListView2D1Ev@Base 2.0.0
 _ZN5Peony13DirectoryView9ListView2D2Ev@Base 2.0.0
 _ZN5Peony13FMWindowIface10addNewTabsERK11QStringList@Base 2.2.0
 _ZN5Peony13FMWindowIface12filterUpdateEiii@Base 2.1.0
 _ZN5Peony13FMWindowIface12searchFilterE7QStringS1_bb@Base 2.1.0
 _ZN5Peony13FMWindowIface13advanceSearchEv@Base 2.1.0
 _ZN5Peony13FMWindowIface13setShowHiddenEv@Base 2.1.0
 _ZN5Peony13FMWindowIface20currentViewZoomLevelEv@Base 2.1.0
 _ZN5Peony13FMWindowIface22currentViewSupportZoomEv@Base 2.1.0
 _ZN5Peony13FMWindowIface23setCurrentViewZoomLevelEi@Base 2.1.0
 _ZN5Peony13FMWindowIface28getCurrentSelectionFileInfosEv@Base 2.1.0
 _ZN5Peony13FileItemModel10getRootUriEv@Base 2.0.0
 _ZN5Peony13FileItemModel10insertRowsEiiRK11QModelIndex@Base 2.0.0
 _ZN5Peony13FileItemModel10removeRowsEiiRK11QModelIndex@Base 2.0.0
 _ZN5Peony13FileItemModel10setRootUriERK7QString@Base 2.0.0
 _ZN5Peony13FileItemModel11onItemAddedEPNS_8FileItemE@Base 2.0.0
 _ZN5Peony13FileItemModel11qt_metacallEN11QMetaObject4CallEiPPv@Base 2.0.0
 _ZN5Peony13FileItemModel11qt_metacastEPKc@Base 2.0.0
 _ZN5Peony13FileItemModel11setRootItemEPNS_8FileItemE@Base 2.0.0
 _ZN5Peony13FileItemModel12dropMimeDataEPK9QMimeDataN2Qt10DropActionEiiRK11QModelIndex@Base 2.0.0
 _ZN5Peony13FileItemModel12indexFromUriERK7QString@Base 2.0.0
 _ZN5Peony13FileItemModel12setRootIndexERK11QModelIndex@Base 2.0.0
 _ZN5Peony13FileItemModel13insertColumnsEiiRK11QModelIndex@Base 2.0.0
 _ZN5Peony13FileItemModel13onItemRemovedEPNS_8FileItemE@Base 2.0.0
 _ZN5Peony13FileItemModel13removeColumnsEiiRK11QModelIndex@Base 2.0.0
 _ZN5Peony13FileItemModel15lastColumnIndexEPNS_8FileItemE@Base 2.0.0
 _ZN5Peony13FileItemModel15onFoundChildrenERK11QModelIndex@Base 2.0.0
 _ZN5Peony13FileItemModel16firstColumnIndexEPNS_8FileItemE@Base 2.0.0
 _ZN5Peony13FileItemModel16staticMetaObjectE@Base 2.0.0
 _ZN5Peony13FileItemModel18cancelFindChildrenEv@Base 2.0.0
 _ZN5Peony13FileItemModel19findChildrenStartedEv@Base 2.0.0
 _ZN5Peony13FileItemModel20findChildrenFinishedEv@Base 2.0.0
 _ZN5Peony13FileItemModel7updatedEv@Base 2.0.0
 _ZN5Peony13FileItemModel9fetchMoreERK11QModelIndex@Base 2.0.0
 _ZN5Peony13FileItemModelC1EP7QObject@Base 2.0.0
 _ZN5Peony13FileItemModelC2EP7QObject@Base 2.0.0
 _ZN5Peony13FileItemModelD0Ev@Base 2.0.0
 _ZN5Peony13FileItemModelD1Ev@Base 2.0.0
 _ZN5Peony13FileItemModelD2Ev@Base 2.0.0
 _ZN5Peony13FileOperation10reversibleEv@Base 2.0.0
 _ZN5Peony13FileOperation11qt_metacallEN11QMetaObject4CallEiPPv@Base 2.0.0
 _ZN5Peony13FileOperation11qt_metacastEPKc@Base 2.0.0
 _ZN5Peony13FileOperation13invalidExitedERK7QString@Base 2.0.0
 _ZN5Peony13FileOperation16getOperationInfoEv@Base 2.0.0
 _ZN5Peony13FileOperation16invalidOperationERK7QString@Base 2.0.0
 _ZN5Peony13FileOperation16operationStartedEv@Base 2.0.0
 _ZN5Peony13FileOperation16staticMetaObjectE@Base 2.0.0
 _ZN5Peony13FileOperation17operationFinishedEv@Base 2.0.0
 _ZN5Peony13FileOperation17operationPreparedEv@Base 2.0.0
 _ZN5Peony13FileOperation18operationStartSnycEv@Base 2.2.0
 _ZN5Peony13FileOperation19operationProgressedEv@Base 2.0.0
 _ZN5Peony13FileOperation20FileProgressCallbackERK7QStringS3_RKxS5_@Base 2.0.0
 _ZN5Peony13FileOperation20operationPreparedOneERK7QStringRKx@Base 2.0.0
 _ZN5Peony13FileOperation22operationProgressedOneERK7QStringS3_RKx@Base 2.0.0
 _ZN5Peony13FileOperation22operationRollbackedOneERK7QStringS3_@Base 2.0.0
 _ZN5Peony13FileOperation24operationAfterProgressedEv@Base 2.0.0
 _ZN5Peony13FileOperation24operationFallbackRetriedEv@Base 2.0.0
 _ZN5Peony13FileOperation24operationStartRollbackedEv@Base 2.0.0
 _ZN5Peony13FileOperation26operationRequestShowWizardEv@Base 2.0.0
 _ZN5Peony13FileOperation27operationAfterProgressedOneERK7QString@Base 2.0.0
 _ZN5Peony13FileOperation34notifyFileWatcherOperationFinishedEv@Base 2.2.0
 _ZN5Peony13FileOperation3runEv@Base 2.0.0
 _ZN5Peony13FileOperation6cancelEv@Base 2.0.0
 _ZN5Peony13FileOperation7erroredERK7QStringS3_RKSt10shared_ptrINS_13GErrorWrapperEEb@Base 2.0.0
 _ZN5Peony13FileOperationC1EP7QObject@Base 2.0.0
 _ZN5Peony13FileOperationC2EP7QObject@Base 2.0.0
 _ZN5Peony13FileOperationD0Ev@Base 2.0.0
 _ZN5Peony13FileOperationD1Ev@Base 2.0.0
 _ZN5Peony13FileOperationD2Ev@Base 2.0.0
 _ZN5Peony13GErrorWrapper4codeEv@Base 2.0.0
 _ZN5Peony13GErrorWrapper6domainEv@Base 2.0.0
 _ZN5Peony13GErrorWrapper7messageEv@Base 2.0.0
 _ZN5Peony13GErrorWrapper8wrapFromEP7_GError@Base 2.0.0
 _ZN5Peony13GErrorWrapperC1EP7_GError@Base 2.0.0
 _ZN5Peony13GErrorWrapperC2EP7_GError@Base 2.0.0
 _ZN5Peony13GErrorWrapperD1Ev@Base 2.0.0
 _ZN5Peony13GErrorWrapperD2Ev@Base 2.0.0
 _ZN5Peony13IconContainer10paintEventEP11QPaintEvent@Base 2.0.0
 _ZN5Peony13IconContainer11qt_metacallEN11QMetaObject4CallEiPPv@Base 2.0.0
 _ZN5Peony13IconContainer11qt_metacastEPKc@Base 2.0.0
 _ZN5Peony13IconContainer14mouseMoveEventEP11QMouseEvent@Base 2.0.0
 _ZN5Peony13IconContainer15mousePressEventEP11QMouseEvent@Base 2.0.0
 _ZN5Peony13IconContainer16staticMetaObjectE@Base 2.0.0
 _ZN5Peony13IconContainerC1EP7QWidget@Base 2.0.0
 _ZN5Peony13IconContainerC2EP7QWidget@Base 2.0.0
 _ZN5Peony13IconContainerD0Ev@Base 2.0.0
 _ZN5Peony13IconContainerD1Ev@Base 2.0.0
 _ZN5Peony13IconContainerD2Ev@Base 2.0.0
 _ZN5Peony13NavigationBar10finishEditEv@Base 2.0.0
 _ZN5Peony13NavigationBar10paintEventEP11QPaintEvent@Base 2.0.0
 _ZN5Peony13NavigationBar11qt_metacallEN11QMetaObject4CallEiPPv@Base 2.0.0
 _ZN5Peony13NavigationBar11qt_metacastEPKc@Base 2.0.0
 _ZN5Peony13NavigationBar13bindContainerEPNS_22DirectoryViewContainerE@Base 2.0.0
 _ZN5Peony13NavigationBar13isPathEditingEv@Base 2.0.0
 _ZN5Peony13NavigationBar13triggerActionERK7QString@Base 2.0.0
 _ZN5Peony13NavigationBar14refreshRequestEv@Base 2.0.0
 _ZN5Peony13NavigationBar14updateLocationERK7QString@Base 2.0.0
 _ZN5Peony13NavigationBar16staticMetaObjectE@Base 2.0.0
 _ZN5Peony13NavigationBar20getLastPreviewPageIdEv@Base 2.0.0
 _ZN5Peony13NavigationBar24switchPreviewPageRequestERK7QString@Base 2.0.0
 _ZN5Peony13NavigationBar27updateWindowLocationRequestERK7QStringbb@Base 2.0.0
 _ZN5Peony13NavigationBar8setBlockEb@Base 2.0.0
 _ZN5Peony13NavigationBar9startEditEv@Base 2.0.0
 _ZN5Peony13NavigationBarC1EP7QWidget@Base 2.0.0
 _ZN5Peony13NavigationBarC2EP7QWidget@Base 2.0.0
 _ZN5Peony13NavigationBarD0Ev@Base 2.0.0
 _ZN5Peony13NavigationBarD1Ev@Base 2.0.0
 _ZN5Peony13NavigationBarD2Ev@Base 2.0.0
 _ZN5Peony13PathCompleter11qt_metacallEN11QMetaObject4CallEiPPv@Base 2.0.0
 _ZN5Peony13PathCompleter11qt_metacastEPKc@Base 2.0.0
 _ZN5Peony13PathCompleter16staticMetaObjectE@Base 2.0.0
 _ZN5Peony13PathCompleterC1EP18QAbstractItemModelP7QObject@Base 2.0.0
 _ZN5Peony13PathCompleterC1EP7QObject@Base 2.0.0
 _ZN5Peony13PathCompleterC2EP18QAbstractItemModelP7QObject@Base 2.0.0
 _ZN5Peony13PathCompleterC2EP7QObject@Base 2.0.0
 _ZN5Peony13PathCompleterD0Ev@Base 2.0.0
 _ZN5Peony13PathCompleterD1Ev@Base 2.0.0
 _ZN5Peony13PathCompleterD2Ev@Base 2.0.0
 _ZN5Peony13PluginManager11getInstanceEv@Base 2.0.0
 _ZN5Peony13PluginManager11qt_metacallEN11QMetaObject4CallEiPPv@Base 2.0.0
 _ZN5Peony13PluginManager11qt_metacastEPKc@Base 2.0.0
 _ZN5Peony13PluginManager16staticMetaObjectE@Base 2.0.0
 _ZN5Peony13PluginManager18pluginStateChangedERK7QStringb@Base 2.0.0
 _ZN5Peony13PluginManager21setPluginEnableByNameERK7QStringb@Base 2.0.0
 _ZN5Peony13PluginManager4initEv@Base 2.0.0
 _ZN5Peony13PluginManager5closeEv@Base 2.0.0
 _ZN5Peony13PluginManagerC1EP7QObject@Base 2.0.0
 _ZN5Peony13PluginManagerC2EP7QObject@Base 2.0.0
 _ZN5Peony13PluginManagerD0Ev@Base 2.0.0
 _ZN5Peony13PluginManagerD1Ev@Base 2.0.0
 _ZN5Peony13PluginManagerD2Ev@Base 2.0.0
 _ZN5Peony13VolumeManager10mountAddedERKSt10shared_ptrINS_5MountEE@Base 2.0.0
 _ZN5Peony13VolumeManager10unmount_cbEP6_GFileP13_GAsyncResultPP7_GError@Base 2.0.0
 _ZN5Peony13VolumeManager11getInstanceEv@Base 2.0.0
 _ZN5Peony13VolumeManager11qt_metacallEN11QMetaObject4CallEiPPv@Base 2.0.0
 _ZN5Peony13VolumeManager11qt_metacastEPKc@Base 2.0.0
 _ZN5Peony13VolumeManager11volumeAddedERKSt10shared_ptrINS_6VolumeEE@Base 2.0.0
 _ZN5Peony13VolumeManager12mountRemovedERKSt10shared_ptrINS_5MountEE@Base 2.0.0
 _ZN5Peony13VolumeManager13volumeRemovedERKSt10shared_ptrINS_6VolumeEE@Base 2.0.0
 _ZN5Peony13VolumeManager14driveConnectedERKSt10shared_ptrINS_5DriveEE@Base 2.0.0
 _ZN5Peony13VolumeManager15getDriveFromUriERK7QString@Base 2.0.0
 _ZN5Peony13VolumeManager15getMountFromUriERK7QString@Base 2.0.0
 _ZN5Peony13VolumeManager16getVolumeFromUriERK7QString@Base 2.0.0
 _ZN5Peony13VolumeManager16staticMetaObjectE@Base 2.0.0
 _ZN5Peony13VolumeManager17driveDisconnectedERKSt10shared_ptrINS_5DriveEE@Base 2.0.0
 _ZN5Peony13VolumeManager17getDriveFromMountERKSt10shared_ptrINS_5MountEE@Base 2.0.0
 _ZN5Peony13VolumeManager18getVolumeFromMountERKSt10shared_ptrINS_5MountEE@Base 2.0.0
 _ZN5Peony13VolumeManager20mount_added_callbackEP15_GVolumeMonitorP7_GMountPS0_@Base 2.0.0
 _ZN5Peony13VolumeManager21volume_added_callbackEP15_GVolumeMonitorP8_GVolumePS0_@Base 2.0.0
 _ZN5Peony13VolumeManager22mount_removed_callbackEP15_GVolumeMonitorP7_GMountPS0_@Base 2.0.0
 _ZN5Peony13VolumeManager23volume_removed_callbackEP15_GVolumeMonitorP8_GVolumePS0_@Base 2.0.0
 _ZN5Peony13VolumeManager24drive_connected_callbackEP15_GVolumeMonitorP7_GDrivePS0_@Base 2.0.0
 _ZN5Peony13VolumeManager27drive_disconnected_callbackEP15_GVolumeMonitorP7_GDrivePS0_@Base 2.0.0
 _ZN5Peony13VolumeManager7unmountERK7QString@Base 2.0.0
 _ZN5Peony13VolumeManagerC1EP7QObject@Base 2.0.0
 _ZN5Peony13VolumeManagerC2EP7QObject@Base 2.0.0
 _ZN5Peony13VolumeManagerD0Ev@Base 2.0.0
 _ZN5Peony13VolumeManagerD1Ev@Base 2.0.0
 _ZN5Peony13VolumeManagerD2Ev@Base 2.0.0
 _ZN5Peony13wrapGFileInfoEP10_GFileInfo@Base 2.0.0
 _ZN5Peony14ClipboardUtils11getInstanceEv@Base 2.0.0
 _ZN5Peony14ClipboardUtils11qt_metacallEN11QMetaObject4CallEiPPv@Base 2.0.0
 _ZN5Peony14ClipboardUtils11qt_metacastEPKc@Base 2.0.0
 _ZN5Peony14ClipboardUtils14clearClipboardEv@Base 2.0.0
 _ZN5Peony14ClipboardUtils16clipboardChangedEv@Base 2.0.0
 _ZN5Peony14ClipboardUtils16staticMetaObjectE@Base 2.0.0
 _ZN5Peony14ClipboardUtils17setClipboardFilesERK11QStringListb@Base 2.0.0
 _ZN5Peony14ClipboardUtils19isClipboardHasFilesEv@Base 2.0.0
 _ZN5Peony14ClipboardUtils19pasteClipboardFilesERK7QString@Base 2.0.0
 _ZN5Peony14ClipboardUtils21getClipboardFilesUrisEv@Base 2.0.0
 _ZN5Peony14ClipboardUtils21isClipboardFilesBeCutEv@Base 2.0.0
 _ZN5Peony14ClipboardUtils23getClipedFilesParentUriEv@Base 2.0.0
 _ZN5Peony14ClipboardUtils7releaseEv@Base 2.0.0
 _ZN5Peony14ClipboardUtilsC1EP7QObject@Base 2.0.0
 _ZN5Peony14ClipboardUtilsC2EP7QObject@Base 2.0.0
 _ZN5Peony14ClipboardUtilsD0Ev@Base 2.0.0
 _ZN5Peony14ClipboardUtilsD1Ev@Base 2.0.0
 _ZN5Peony14ClipboardUtilsD2Ev@Base 2.0.0
 _ZN5Peony14FileEnumerator11getChildrenEb@Base 2.0.0
 _ZN5Peony14FileEnumerator11handleErrorEP7_GError@Base 2.0.0
 _ZN5Peony14FileEnumerator11qt_metacallEN11QMetaObject4CallEiPPv@Base 2.0.0
 _ZN5Peony14FileEnumerator11qt_metacastEPKc@Base 2.0.0
 _ZN5Peony14FileEnumerator13enumerateSyncEv@Base 2.0.0
 _ZN5Peony14FileEnumerator14enumerateAsyncEv@Base 2.0.0
 _ZN5Peony14FileEnumerator15childrenUpdatedERK11QStringList@Base 2.0.0
 _ZN5Peony14FileEnumerator16staticMetaObjectE@Base 2.0.0
 _ZN5Peony14FileEnumerator17enumerateChildrenEP16_GFileEnumerator@Base 2.0.0
 _ZN5Peony14FileEnumerator17enumerateFinishedEb@Base 2.0.0
 _ZN5Peony14FileEnumerator19enumerateTargetFileEv@Base 2.0.0
 _ZN5Peony14FileEnumerator21setEnumerateDirectoryE7QString@Base 2.0.0
 _ZN5Peony14FileEnumerator21setEnumerateDirectoryEP6_GFile@Base 2.0.0
 _ZN5Peony14FileEnumerator24mount_mountable_callbackEP6_GFileP13_GAsyncResultPS0_@Base 2.0.0
 _ZN5Peony14FileEnumerator31mount_enclosing_volume_callbackEP6_GFileP13_GAsyncResultPS0_@Base 2.0.0
 _ZN5Peony14FileEnumerator34find_children_async_ready_callbackEP6_GFileP13_GAsyncResultPS0_@Base 2.0.0
 _ZN5Peony14FileEnumerator42enumerator_next_files_async_ready_callbackEP16_GFileEnumeratorP13_GAsyncResultPS0_@Base 2.0.0
 _ZN5Peony14FileEnumerator6cancelEv@Base 2.0.0
 _ZN5Peony14FileEnumerator7prepareEv@Base 2.0.0
#MISSING: 2.1.0# _ZN5Peony14FileEnumerator8preparedERKSt10shared_ptrINS_13GErrorWrapperEE@Base 2.0.0
 _ZN5Peony14FileEnumerator8preparedERKSt10shared_ptrINS_13GErrorWrapperEERK7QStringb@Base 2.1.0
 _ZN5Peony14FileEnumeratorC1EP7QObject@Base 2.0.0
 _ZN5Peony14FileEnumeratorC2EP7QObject@Base 2.0.0
 _ZN5Peony14FileEnumeratorD0Ev@Base 2.0.0
 _ZN5Peony14FileEnumeratorD1Ev@Base 2.0.0
 _ZN5Peony14FileEnumeratorD2Ev@Base 2.0.0
 _ZN5Peony14GlobalSettings11getInstanceEv@Base 2.0.0
 _ZN5Peony14GlobalSettings11qt_metacallEN11QMetaObject4CallEiPPv@Base 2.0.0
 _ZN5Peony14GlobalSettings11qt_metacastEPKc@Base 2.0.0
 _ZN5Peony14GlobalSettings12valueChangedERK7QString@Base 2.0.0
 _ZN5Peony14GlobalSettings16staticMetaObjectE@Base 2.0.0
 _ZN5Peony14GlobalSettings5resetERK7QString@Base 2.0.0
 _ZN5Peony14GlobalSettings7isExistERK7QString@Base 2.0.0
 _ZN5Peony14GlobalSettings8getValueERK7QString@Base 2.0.0
 _ZN5Peony14GlobalSettings8resetAllEv@Base 2.0.0
 _ZN5Peony14GlobalSettings8setValueERK7QStringRK8QVariant@Base 2.0.0
 _ZN5Peony14GlobalSettings9forceSyncERK7QString@Base 2.0.0
 _ZN5Peony14GlobalSettingsC1EP7QObject@Base 2.0.0
 _ZN5Peony14GlobalSettingsC2EP7QObject@Base 2.0.0
 _ZN5Peony14GlobalSettingsD0Ev@Base 2.0.0
 _ZN5Peony14GlobalSettingsD1Ev@Base 2.0.0
 _ZN5Peony14GlobalSettingsD2Ev@Base 2.0.0
 _ZN5Peony14MountOperation10aborted_cbEP16_GMountOperationPS0_@Base 2.0.0
 _ZN5Peony14MountOperation11qt_metacallEN11QMetaObject4CallEiPPv@Base 2.0.0
 _ZN5Peony14MountOperation11qt_metacastEPKc@Base 2.0.0
 _ZN5Peony14MountOperation15ask_password_cbEP16_GMountOperationPKcS4_S4_17GAskPasswordFlagsPS0_@Base 2.0.0
 _ZN5Peony14MountOperation15ask_question_cbEP16_GMountOperationPcPS3_PS0_@Base 2.0.0
 _ZN5Peony14MountOperation16staticMetaObjectE@Base 2.0.0
 _ZN5Peony14MountOperation31mount_enclosing_volume_callbackEP6_GFileP13_GAsyncResultPS0_@Base 2.0.0
 _ZN5Peony14MountOperation5startEv@Base 2.0.0
 _ZN5Peony14MountOperation6cancelEv@Base 2.0.0
 _ZN5Peony14MountOperation8finishedERKSt10shared_ptrINS_13GErrorWrapperEE@Base 2.0.0
 _ZN5Peony14MountOperation9cancelledEv@Base 2.0.0
 _ZN5Peony14MountOperationC1E7QStringP7QObject@Base 2.0.0
 _ZN5Peony14MountOperationC2E7QStringP7QObject@Base 2.0.0
 _ZN5Peony14MountOperationD0Ev@Base 2.0.0
 _ZN5Peony14MountOperationD1Ev@Base 2.0.0
 _ZN5Peony14MountOperationD2Ev@Base 2.0.0
 _ZN5Peony15BookMarkManager10urisLoadedEv@Base 2.0.0
 _ZN5Peony15BookMarkManager11addBookMarkERK7QString@Base 2.0.0
 _ZN5Peony15BookMarkManager11getInstanceEv@Base 2.0.0
 _ZN5Peony15BookMarkManager11qt_metacallEN11QMetaObject4CallEiPPv@Base 2.0.0
 _ZN5Peony15BookMarkManager11qt_metacastEPKc@Base 2.0.0
 _ZN5Peony15BookMarkManager13bookMarkAddedERK7QStringb@Base 2.0.0
 _ZN5Peony15BookMarkManager14removeBookMarkERK7QString@Base 2.0.0
 _ZN5Peony15BookMarkManager15bookMarkRemovedERK7QStringb@Base 2.0.0
 _ZN5Peony15BookMarkManager16staticMetaObjectE@Base 2.0.0
 _ZN5Peony15BookMarkManagerC1EP7QObject@Base 2.0.0
 _ZN5Peony15BookMarkManagerC2EP7QObject@Base 2.0.0
 _ZN5Peony15BookMarkManagerD0Ev@Base 2.0.0
 _ZN5Peony15BookMarkManagerD1Ev@Base 2.0.0
 _ZN5Peony15BookMarkManagerD2Ev@Base 2.0.0
 _ZN5Peony15FMWindowFactory11getInstanceEv@Base 2.1.0
 _ZN5Peony15FMWindowFactory11qt_metacallEN11QMetaObject4CallEiPPv@Base 2.1.0
 _ZN5Peony15FMWindowFactory11qt_metacastEPKc@Base 2.1.0
 _ZN5Peony15FMWindowFactory16staticMetaObjectE@Base 2.1.0
 _ZN5Peony15FMWindowFactory6createERK11QStringList@Base 2.1.0
 _ZN5Peony15FMWindowFactory6createERK7QString@Base 2.1.0
 _ZN5Peony15FMWindowFactoryC1EP7QObject@Base 2.1.0
 _ZN5Peony15FMWindowFactoryC2EP7QObject@Base 2.1.0
 _ZN5Peony15FMWindowFactoryD0Ev@Base 2.1.0
 _ZN5Peony15FMWindowFactoryD1Ev@Base 2.1.0
 _ZN5Peony15FMWindowFactoryD2Ev@Base 2.1.0
 _ZN5Peony15FileInfoManager11getInstanceEv@Base 2.0.0
 _ZN5Peony15FileInfoManager14insertFileInfoESt10shared_ptrINS_8FileInfoEE@Base 2.0.0
 _ZN5Peony15FileInfoManager17findFileInfoByUriE7QString@Base 2.0.0
 _ZN5Peony15FileInfoManager19removeFileInfobyUriE7QString@Base 2.0.0
 _ZN5Peony15FileInfoManager5clearEv@Base 2.0.0
 _ZN5Peony15FileInfoManager6removeE7QString@Base 2.0.0
 _ZN5Peony15FileInfoManager6removeESt10shared_ptrINS_8FileInfoEE@Base 2.0.0
 _ZN5Peony15FileInfoManager9showStateEv@Base 2.0.0
 _ZN5Peony15FileInfoManagerC1Ev@Base 2.0.0
 _ZN5Peony15FileInfoManagerC2Ev@Base 2.0.0
 _ZN5Peony15FileInfoManagerD1Ev@Base 2.0.0
 _ZN5Peony15FileInfoManagerD2Ev@Base 2.0.0
 _ZN5Peony15FileLauchDialog11qt_metacallEN11QMetaObject4CallEiPPv@Base 2.0.0
 _ZN5Peony15FileLauchDialog11qt_metacastEPKc@Base 2.0.0
 _ZN5Peony15FileLauchDialog16staticMetaObjectE@Base 2.0.0
 _ZN5Peony15FileLauchDialogC1ERK7QStringP7QWidget@Base 2.0.0
 _ZN5Peony15FileLauchDialogC2ERK7QStringP7QWidget@Base 2.0.0
 _ZN5Peony15FileLauchDialogD0Ev@Base 2.0.0
 _ZN5Peony15FileLauchDialogD1Ev@Base 2.0.0
 _ZN5Peony15FileLauchDialogD2Ev@Base 2.0.0
 _ZN5Peony15FilePreviewPage10countAsyncERK7QString@Base 2.0.0
 _ZN5Peony15FilePreviewPage10resetCountEv@Base 2.0.0
 _ZN5Peony15FilePreviewPage10resizeIconE5QSize@Base 2.0.0
 _ZN5Peony15FilePreviewPage10updateInfoEPNS_8FileInfoE@Base 2.0.0
 _ZN5Peony15FilePreviewPage11onCountDoneEv@Base 2.0.0
 _ZN5Peony15FilePreviewPage11qt_metacallEN11QMetaObject4CallEiPPv@Base 2.0.0
 _ZN5Peony15FilePreviewPage11qt_metacastEPKc@Base 2.0.0
 _ZN5Peony15FilePreviewPage11updateCountEv@Base 2.0.0
 _ZN5Peony15FilePreviewPage13onPreparedOneERK7QStringy@Base 2.0.0
 _ZN5Peony15FilePreviewPage16staticMetaObjectE@Base 2.0.0
 _ZN5Peony15FilePreviewPage6cancelEv@Base 2.0.0
 _ZN5Peony15FilePreviewPageC1EP7QWidget@Base 2.0.0
 _ZN5Peony15FilePreviewPageC2EP7QWidget@Base 2.0.0
 _ZN5Peony15FilePreviewPageD0Ev@Base 2.0.0
 _ZN5Peony15FilePreviewPageD1Ev@Base 2.0.0
 _ZN5Peony15FilePreviewPageD2Ev@Base 2.0.0
 _ZN5Peony15IconViewFactory10pluginTypeEv@Base 2.0.0
 _ZN5Peony15IconViewFactory10supportUriERK7QString@Base 2.0.0
 _ZN5Peony15IconViewFactory11descriptionEv@Base 2.0.0
 _ZN5Peony15IconViewFactory11getInstanceEv@Base 2.0.0
 _ZN5Peony15IconViewFactory11qt_metacallEN11QMetaObject4CallEiPPv@Base 2.0.0
 _ZN5Peony15IconViewFactory11qt_metacastEPKc@Base 2.0.0
 _ZN5Peony15IconViewFactory12viewIdentityEv@Base 2.0.0
 _ZN5Peony15IconViewFactory15zoom_level_hintEv@Base 2.0.0
 _ZN5Peony15IconViewFactory16staticMetaObjectE@Base 2.0.0
 _ZN5Peony15IconViewFactory4iconEv@Base 2.0.0
 _ZN5Peony15IconViewFactory4nameEv@Base 2.0.0
 _ZN5Peony15IconViewFactory6createEv@Base 2.0.0
 _ZN5Peony15IconViewFactory8isEnableEv@Base 2.0.0
 _ZN5Peony15IconViewFactory8priorityERK7QString@Base 2.0.0
 _ZN5Peony15IconViewFactory8viewIconEv@Base 2.0.0
 _ZN5Peony15IconViewFactory9setEnableEb@Base 2.0.0
 _ZN5Peony15IconViewFactoryC1EP7QObject@Base 2.0.0
 _ZN5Peony15IconViewFactoryC2EP7QObject@Base 2.0.0
 _ZN5Peony15IconViewFactoryD0Ev@Base 2.0.0
 _ZN5Peony15IconViewFactoryD1Ev@Base 2.0.0
 _ZN5Peony15IconViewFactoryD2Ev@Base 2.0.0
 _ZN5Peony15ListViewFactory10pluginTypeEv@Base 2.0.0
 _ZN5Peony15ListViewFactory10supportUriERK7QString@Base 2.0.0
 _ZN5Peony15ListViewFactory11descriptionEv@Base 2.0.0
 _ZN5Peony15ListViewFactory11getInstanceEv@Base 2.0.0
 _ZN5Peony15ListViewFactory11qt_metacallEN11QMetaObject4CallEiPPv@Base 2.0.0
 _ZN5Peony15ListViewFactory11qt_metacastEPKc@Base 2.0.0
 _ZN5Peony15ListViewFactory12viewIdentityEv@Base 2.0.0
 _ZN5Peony15ListViewFactory15zoom_level_hintEv@Base 2.0.0
 _ZN5Peony15ListViewFactory16staticMetaObjectE@Base 2.0.0
 _ZN5Peony15ListViewFactory4iconEv@Base 2.0.0
 _ZN5Peony15ListViewFactory4nameEv@Base 2.0.0
 _ZN5Peony15ListViewFactory6createEv@Base 2.0.0
 _ZN5Peony15ListViewFactory8isEnableEv@Base 2.0.0
 _ZN5Peony15ListViewFactory8priorityERK7QString@Base 2.0.0
 _ZN5Peony15ListViewFactory8viewIconEv@Base 2.0.0
 _ZN5Peony15ListViewFactory9setEnableEb@Base 2.0.0
 _ZN5Peony15ListViewFactoryC1EP7QObject@Base 2.0.0
 _ZN5Peony15ListViewFactoryC2EP7QObject@Base 2.0.0
 _ZN5Peony15ListViewFactoryD0Ev@Base 2.0.0
 _ZN5Peony15ListViewFactoryD1Ev@Base 2.0.0
 _ZN5Peony15ListViewFactoryD2Ev@Base 2.0.0
 _ZN5Peony15SideBarDelegate11qt_metacallEN11QMetaObject4CallEiPPv@Base 2.0.0
 _ZN5Peony15SideBarDelegate11qt_metacastEPKc@Base 2.0.0
 _ZN5Peony15SideBarDelegate16staticMetaObjectE@Base 2.0.0
 _ZN5Peony15SideBarDelegateC1EP7QObject@Base 2.0.0
 _ZN5Peony15SideBarDelegateC2EP7QObject@Base 2.0.0
 _ZN5Peony15SideBarDelegateD0Ev@Base 2.0.0
 _ZN5Peony15SideBarDelegateD1Ev@Base 2.0.0
 _ZN5Peony15SideBarDelegateD2Ev@Base 2.0.0
 _ZN5Peony15wrapGThemedIconEP12_GThemedIcon@Base 2.0.0
 _ZN5Peony16AdvanceSearchBar10browsePathEv@Base 2.0.0
 _ZN5Peony16AdvanceSearchBar11pathChangedEv@Base 2.0.0
 _ZN5Peony16AdvanceSearchBar11qt_metacallEN11QMetaObject4CallEiPPv@Base 2.0.0
 _ZN5Peony16AdvanceSearchBar11qt_metacastEPKc@Base 2.0.0
 _ZN5Peony16AdvanceSearchBar12filterUpdateEv@Base 2.0.0
 _ZN5Peony16AdvanceSearchBar12searchFilterEv@Base 2.0.0
 _ZN5Peony16AdvanceSearchBar13setShowHiddenEv@Base 2.0.0
 _ZN5Peony16AdvanceSearchBar14setdefaultpathE7QString@Base 2.0.0
 _ZN5Peony16AdvanceSearchBar14updateLocationEv@Base 2.0.0
 _ZN5Peony16AdvanceSearchBar16staticMetaObjectE@Base 2.0.0
 _ZN5Peony16AdvanceSearchBar4initEv@Base 2.0.0
 _ZN5Peony16AdvanceSearchBar9clearDataEv@Base 2.0.0
 _ZN5Peony16AdvanceSearchBarC1EPNS_13FMWindowIfaceEP7QWidget@Base 2.1.0
#MISSING: 2.1.0# _ZN5Peony16AdvanceSearchBarC1EPNS_8FMWindowEP7QWidget@Base 2.0.0
 _ZN5Peony16AdvanceSearchBarC2EPNS_13FMWindowIfaceEP7QWidget@Base 2.1.0
#MISSING: 2.1.0# _ZN5Peony16AdvanceSearchBarC2EPNS_8FMWindowEP7QWidget@Base 2.0.0
 _ZN5Peony16AdvanceSearchBarD0Ev@Base 2.0.0
 _ZN5Peony16AdvanceSearchBarD1Ev@Base 2.0.0
 _ZN5Peony16AdvanceSearchBarD2Ev@Base 2.0.0
 _ZN5Peony16FileLaunchAction11qt_metacallEN11QMetaObject4CallEiPPv@Base 2.0.0
 _ZN5Peony16FileLaunchAction11qt_metacastEPKc@Base 2.0.0
#MISSING: 2.2.0# _ZN5Peony16FileLaunchAction13lauchFileSyncEb@Base 2.0.0
 _ZN5Peony16FileLaunchAction13lauchFileSyncEbb@Base 2.2.0
 _ZN5Peony16FileLaunchAction14execFileIntermEv@Base 2.2.0
 _ZN5Peony16FileLaunchAction14getAppInfoNameEv@Base 2.0.0
#MISSING: 2.2.0# _ZN5Peony16FileLaunchAction14lauchFileAsyncEb@Base 2.0.0
 _ZN5Peony16FileLaunchAction14lauchFileAsyncEbb@Base 2.2.0
 _ZN5Peony16FileLaunchAction16staticMetaObjectE@Base 2.0.0
 _ZN5Peony16FileLaunchAction19isDesktopFileActionEv@Base 2.0.0
 _ZN5Peony16FileLaunchAction21getAppInfoDisplayNameEv@Base 2.0.0
 _ZN5Peony16FileLaunchAction6getUriEv@Base 2.0.0
 _ZN5Peony16FileLaunchAction7isValidEv@Base 2.0.0
 _ZN5Peony16FileLaunchAction8execFileEv@Base 2.2.0
 _ZN5Peony16FileLaunchActionC1ERK7QStringP9_GAppInfobP7QObject@Base 2.0.0
 _ZN5Peony16FileLaunchActionC2ERK7QStringP9_GAppInfobP7QObject@Base 2.0.0
 _ZN5Peony16FileLaunchActionD0Ev@Base 2.0.0
 _ZN5Peony16FileLaunchActionD1Ev@Base 2.0.0
 _ZN5Peony16FileLaunchActionD2Ev@Base 2.0.0
 _ZN5Peony16FileNodeReporter11qt_metacallEN11QMetaObject4CallEiPPv@Base 2.0.0
 _ZN5Peony16FileNodeReporter11qt_metacastEPKc@Base 2.0.0
 _ZN5Peony16FileNodeReporter16staticMetaObjectE@Base 2.0.0
 _ZN5Peony16FileNodeReporter17nodeOperationDoneERK7QStringRKx@Base 2.0.0
 _ZN5Peony16FileNodeReporter21enumerateNodeFinishedEv@Base 2.0.0
 _ZN5Peony16FileNodeReporter9nodeFoundERK7QStringRKx@Base 2.0.0
 _ZN5Peony16FileNodeReporterC1EP7QObject@Base 2.0.0
 _ZN5Peony16FileNodeReporterC2EP7QObject@Base 2.0.0
 _ZN5Peony16FileNodeReporterD0Ev@Base 2.0.0
 _ZN5Peony16FileNodeReporterD1Ev@Base 2.0.0
 _ZN5Peony16FileNodeReporterD2Ev@Base 2.0.0
 _ZN5Peony16IconViewFactory210pluginTypeEv@Base 2.0.0
 _ZN5Peony16IconViewFactory210supportUriERK7QString@Base 2.0.0
 _ZN5Peony16IconViewFactory211descriptionEv@Base 2.0.0
 _ZN5Peony16IconViewFactory211getInstanceEv@Base 2.0.0
 _ZN5Peony16IconViewFactory211qt_metacallEN11QMetaObject4CallEiPPv@Base 2.0.0
 _ZN5Peony16IconViewFactory211qt_metacastEPKc@Base 2.0.0
 _ZN5Peony16IconViewFactory211supportZoomEv@Base 2.1.0
 _ZN5Peony16IconViewFactory212viewIdentityEv@Base 2.0.0
 _ZN5Peony16IconViewFactory215zoom_level_hintEv@Base 2.0.0
 _ZN5Peony16IconViewFactory216staticMetaObjectE@Base 2.0.0
 _ZN5Peony16IconViewFactory225maximumSupportedZoomLevelEv@Base 2.1.0
 _ZN5Peony16IconViewFactory225minimumSupportedZoomLevelEv@Base 2.1.0
 _ZN5Peony16IconViewFactory24iconEv@Base 2.0.0
 _ZN5Peony16IconViewFactory24nameEv@Base 2.0.0
 _ZN5Peony16IconViewFactory26createEv@Base 2.0.0
 _ZN5Peony16IconViewFactory28isEnableEv@Base 2.0.0
 _ZN5Peony16IconViewFactory28priorityERK7QString@Base 2.0.0
 _ZN5Peony16IconViewFactory28viewIconEv@Base 2.0.0
 _ZN5Peony16IconViewFactory28viewNameEv@Base 2.1.0
 _ZN5Peony16IconViewFactory29setEnableEb@Base 2.0.0
 _ZN5Peony16IconViewFactory2C1EP7QObject@Base 2.0.0
 _ZN5Peony16IconViewFactory2C2EP7QObject@Base 2.0.0
 _ZN5Peony16IconViewFactory2D0Ev@Base 2.0.0
 _ZN5Peony16IconViewFactory2D1Ev@Base 2.0.0
 _ZN5Peony16IconViewFactory2D2Ev@Base 2.0.0
 _ZN5Peony16ListViewDelegate11qt_metacallEN11QMetaObject4CallEiPPv@Base 2.0.0
 _ZN5Peony16ListViewDelegate11qt_metacastEPKc@Base 2.0.0
 _ZN5Peony16ListViewDelegate16staticMetaObjectE@Base 2.0.0
 _ZN5Peony16ListViewDelegateC1EP7QObject@Base 2.0.0
 _ZN5Peony16ListViewDelegateC2EP7QObject@Base 2.0.0
 _ZN5Peony16ListViewDelegateD0Ev@Base 2.0.0
 _ZN5Peony16ListViewDelegateD1Ev@Base 2.0.0
 _ZN5Peony16ListViewDelegateD2Ev@Base 2.0.0
 _ZN5Peony16ListViewFactory210pluginTypeEv@Base 2.0.0
 _ZN5Peony16ListViewFactory210supportUriERK7QString@Base 2.0.0
 _ZN5Peony16ListViewFactory211descriptionEv@Base 2.0.0
 _ZN5Peony16ListViewFactory211getInstanceEv@Base 2.0.0
 _ZN5Peony16ListViewFactory211qt_metacallEN11QMetaObject4CallEiPPv@Base 2.0.0
 _ZN5Peony16ListViewFactory211qt_metacastEPKc@Base 2.0.0
 _ZN5Peony16ListViewFactory211supportZoomEv@Base 2.1.0
 _ZN5Peony16ListViewFactory212viewIdentityEv@Base 2.0.0
 _ZN5Peony16ListViewFactory215zoom_level_hintEv@Base 2.0.0
 _ZN5Peony16ListViewFactory216staticMetaObjectE@Base 2.0.0
 _ZN5Peony16ListViewFactory225maximumSupportedZoomLevelEv@Base 2.1.0
 _ZN5Peony16ListViewFactory225minimumSupportedZoomLevelEv@Base 2.1.0
 _ZN5Peony16ListViewFactory24iconEv@Base 2.0.0
 _ZN5Peony16ListViewFactory24nameEv@Base 2.0.0
 _ZN5Peony16ListViewFactory26createEv@Base 2.0.0
 _ZN5Peony16ListViewFactory28isEnableEv@Base 2.0.0
 _ZN5Peony16ListViewFactory28priorityERK7QString@Base 2.0.0
 _ZN5Peony16ListViewFactory28viewIconEv@Base 2.0.0
 _ZN5Peony16ListViewFactory28viewNameEv@Base 2.1.0
 _ZN5Peony16ListViewFactory29setEnableEb@Base 2.0.0
 _ZN5Peony16ListViewFactory2C1EP7QObject@Base 2.0.0
 _ZN5Peony16ListViewFactory2C2EP7QObject@Base 2.0.0
 _ZN5Peony16ListViewFactory2D0Ev@Base 2.0.0
 _ZN5Peony16ListViewFactory2D1Ev@Base 2.0.0
 _ZN5Peony16ListViewFactory2D2Ev@Base 2.0.0
 _ZN5Peony16PropertiesWindow11qt_metacallEN11QMetaObject4CallEiPPv@Base 2.0.0
 _ZN5Peony16PropertiesWindow11qt_metacastEPKc@Base 2.0.0
 _ZN5Peony16PropertiesWindow16staticMetaObjectE@Base 2.0.0
 _ZN5Peony16PropertiesWindow17gotoAboutComputerEv@Base 2.1.0
 _ZN5Peony16PropertiesWindow4showEv@Base 2.1.0
 _ZN5Peony16PropertiesWindowC1ERK11QStringListP7QWidget@Base 2.0.0
 _ZN5Peony16PropertiesWindowC2ERK11QStringListP7QWidget@Base 2.0.0
 _ZN5Peony16PropertiesWindowD0Ev@Base 2.0.0
 _ZN5Peony16PropertiesWindowD1Ev@Base 2.0.0
 _ZN5Peony16PropertiesWindowD2Ev@Base 2.0.0
 _ZN5Peony16SearchVFSManager10addHistoryERK7QStringRK11QStringList@Base 2.0.0
 _ZN5Peony16SearchVFSManager10hasHistoryERK7QString@Base 2.0.0
 _ZN5Peony16SearchVFSManager11getInstanceEv@Base 2.0.0
 _ZN5Peony16SearchVFSManager11qt_metacallEN11QMetaObject4CallEiPPv@Base 2.0.0
 _ZN5Peony16SearchVFSManager11qt_metacastEPKc@Base 2.0.0
 _ZN5Peony16SearchVFSManager12clearHistoryEv@Base 2.0.0
 _ZN5Peony16SearchVFSManager15clearHistoryOneERK7QString@Base 2.0.0
 _ZN5Peony16SearchVFSManager16staticMetaObjectE@Base 2.0.0
 _ZN5Peony16SearchVFSManager17getHistroyResultsERK7QString@Base 2.0.0
 _ZN5Peony16SearchVFSManagerC1EP7QObject@Base 2.0.0
 _ZN5Peony16SearchVFSManagerC2EP7QObject@Base 2.0.0
 _ZN5Peony16SearchVFSManagerD0Ev@Base 2.0.0
 _ZN5Peony16SearchVFSManagerD1Ev@Base 2.0.0
 _ZN5Peony16SearchVFSManagerD2Ev@Base 2.0.0
 _ZN5Peony16ThumbnailManager11getInstanceEv@Base 2.0.0
 _ZN5Peony16ThumbnailManager11qt_metacallEN11QMetaObject4CallEiPPv@Base 2.0.0
 _ZN5Peony16ThumbnailManager11qt_metacastEPKc@Base 2.0.0
 _ZN5Peony16ThumbnailManager15createThumbnailERK7QStringSt10shared_ptrINS_11FileWatcherEEb@Base 2.0.0
 _ZN5Peony16ThumbnailManager15tryGetThumbnailERK7QString@Base 2.0.0
 _ZN5Peony16ThumbnailManager16releaseThumbnailERK7QString@Base 2.0.0
 _ZN5Peony16ThumbnailManager16staticMetaObjectE@Base 2.0.0
 _ZN5Peony16ThumbnailManager23createThumbnailInternalERK7QStringSt10shared_ptrINS_11FileWatcherEEb@Base 2.1.0
 _ZN5Peony16ThumbnailManager23insertOrUpdateThumbnailERK7QStringRK5QIcon@Base 2.1.0
 _ZN5Peony16ThumbnailManager24setForbidThumbnailInViewEb@Base 2.0.0
 _ZN5Peony16ThumbnailManager24syncThumbnailPreferencesEv@Base 2.0.0
 _ZN5Peony16ThumbnailManager26updateDesktopFileThumbnailERK7QStringSt10shared_ptrINS_11FileWatcherEE@Base 2.0.0
 _ZN5Peony16ThumbnailManagerC1EP7QObject@Base 2.0.0
 _ZN5Peony16ThumbnailManagerC2EP7QObject@Base 2.0.0
 _ZN5Peony16ThumbnailManagerD0Ev@Base 2.0.0
 _ZN5Peony16ThumbnailManagerD1Ev@Base 2.0.0
 _ZN5Peony16ThumbnailManagerD2Ev@Base 2.0.0
 _ZN5Peony16ToolBarContainer10paintEventEP11QPaintEvent@Base 2.0.0
 _ZN5Peony16ToolBarContainerC1EP7QWidget@Base 2.0.0
 _ZN5Peony16ToolBarContainerC2EP7QWidget@Base 2.0.0
 _ZN5Peony16ToolBarContainerD0Ev@Base 2.0.0
 _ZN5Peony16ToolBarContainerD1Ev@Base 2.0.0
 _ZN5Peony16ToolBarContainerD2Ev@Base 2.0.0
#MISSING: 2.1.0# _ZN5Peony16ViewFactoryModel11qt_metacallEN11QMetaObject4CallEiPPv@Base 2.0.0
#MISSING: 2.1.0# _ZN5Peony16ViewFactoryModel11qt_metacastEPKc@Base 2.0.0
#MISSING: 2.1.0# _ZN5Peony16ViewFactoryModel15setDirectoryUriERK7QString@Base 2.0.0
#MISSING: 2.1.0# _ZN5Peony16ViewFactoryModel16staticMetaObjectE@Base 2.0.0
#MISSING: 2.1.0# _ZN5Peony16ViewFactoryModel18getIndexFromViewIdERK7QString@Base 2.0.0
#MISSING: 2.1.0# _ZN5Peony16ViewFactoryModel24getHighestPriorityViewIdEi@Base 2.0.0
#MISSING: 2.1.0# _ZN5Peony16ViewFactoryModel9getViewIdEi@Base 2.0.0
#MISSING: 2.1.0# _ZN5Peony16ViewFactoryModelC1EP7QObject@Base 2.0.0
#MISSING: 2.1.0# _ZN5Peony16ViewFactoryModelC2EP7QObject@Base 2.0.0
#MISSING: 2.1.0# _ZN5Peony16ViewFactoryModelD0Ev@Base 2.0.0
#MISSING: 2.1.0# _ZN5Peony16ViewFactoryModelD1Ev@Base 2.0.0
#MISSING: 2.1.0# _ZN5Peony16ViewFactoryModelD2Ev@Base 2.0.0
 _ZN5Peony16wrapGCancellableEP13_GCancellable@Base 2.0.0
 _ZN5Peony16wrapGFileMonitorEP13_GFileMonitor@Base 2.0.0
 _ZN5Peony17DirectoryViewMenu11fillActionsEv@Base 2.0.0
 _ZN5Peony17DirectoryViewMenu11qt_metacallEN11QMetaObject4CallEiPPv@Base 2.0.0
 _ZN5Peony17DirectoryViewMenu11qt_metacastEPKc@Base 2.0.0
 _ZN5Peony17DirectoryViewMenu16staticMetaObjectE@Base 2.0.0
 _ZN5Peony17DirectoryViewMenu21constructTrashActionsEv@Base 2.0.0
 _ZN5Peony17DirectoryViewMenu22constructFileOpActionsEv@Base 2.0.0
 _ZN5Peony17DirectoryViewMenu22constructOpenOpActionsEv@Base 2.0.0
 _ZN5Peony17DirectoryViewMenu22constructSearchActionsEv@Base 2.0.0
 _ZN5Peony17DirectoryViewMenu22constructViewOpActionsEv@Base 2.0.0
 _ZN5Peony17DirectoryViewMenu24constructComputerActionsEv@Base 2.0.0
 _ZN5Peony17DirectoryViewMenu26constructMenuPluginActionsEv@Base 2.0.0
 _ZN5Peony17DirectoryViewMenu30constructCreateTemplateActionsEv@Base 2.0.0
 _ZN5Peony17DirectoryViewMenu30constructFilePropertiesActionsEv@Base 2.0.0
 _ZN5Peony17DirectoryViewMenuC1EPNS_13FMWindowIfaceEP7QWidget@Base 2.1.0
 _ZN5Peony17DirectoryViewMenuC1EPNS_19DirectoryViewWidgetEP7QWidget@Base 2.0.0
#MISSING: 2.1.0# _ZN5Peony17DirectoryViewMenuC1EPNS_8FMWindowEP7QWidget@Base 2.0.0
 _ZN5Peony17DirectoryViewMenuC2EPNS_13FMWindowIfaceEP7QWidget@Base 2.1.0
 _ZN5Peony17DirectoryViewMenuC2EPNS_19DirectoryViewWidgetEP7QWidget@Base 2.0.0
#MISSING: 2.1.0# _ZN5Peony17DirectoryViewMenuC2EPNS_8FMWindowEP7QWidget@Base 2.0.0
 _ZN5Peony17DirectoryViewMenuD0Ev@Base 2.0.0
 _ZN5Peony17DirectoryViewMenuD1Ev@Base 2.0.0
 _ZN5Peony17DirectoryViewMenuD2Ev@Base 2.0.0
 _ZN5Peony17FileCopyOperation11qt_metacallEN11QMetaObject4CallEiPPv@Base 2.0.0
 _ZN5Peony17FileCopyOperation11qt_metacastEPKc@Base 2.0.0
 _ZN5Peony17FileCopyOperation15copyRecursivelyEPNS_8FileNodeE@Base 2.0.0
 _ZN5Peony17FileCopyOperation16getOperationInfoEv@Base 2.0.0
 _ZN5Peony17FileCopyOperation16staticMetaObjectE@Base 2.0.0
 (arch= !armel !armhf !i386 !mipsel !hppa !m68k !sh4 !x32)_ZN5Peony17FileCopyOperation17progress_callbackEllPS0_@Base 2.0.0
 (arch=armel)_ZN5Peony17FileCopyOperation17progress_callbackExxPS0_@Base 2.0.1
 _ZN5Peony17FileCopyOperation23rollbackNodeRecursivelyEPNS_8FileNodeE@Base 2.0.0
 _ZN5Peony17FileCopyOperation3runEv@Base 2.0.0
 _ZN5Peony17FileCopyOperation6cancelEv@Base 2.0.0
 _ZN5Peony17FileCopyOperation9prehandleEP7_GError@Base 2.0.0
 _ZN5Peony17FileCopyOperationC1E11QStringList7QStringP7QObject@Base 2.0.0
 _ZN5Peony17FileCopyOperationC2E11QStringList7QStringP7QObject@Base 2.0.0
 _ZN5Peony17FileCopyOperationD0Ev@Base 2.0.0
 _ZN5Peony17FileCopyOperationD1Ev@Base 2.0.0
 _ZN5Peony17FileCopyOperationD2Ev@Base 2.0.0
 _ZN5Peony17FileLaunchManager11qt_metacallEN11QMetaObject4CallEiPPv@Base 2.0.0
 _ZN5Peony17FileLaunchManager11qt_metacastEPKc@Base 2.0.0
 _ZN5Peony17FileLaunchManager13getAllActionsERK7QString@Base 2.0.0
 _ZN5Peony17FileLaunchManager16getDefaultActionERK7QString@Base 2.0.0
 _ZN5Peony17FileLaunchManager16staticMetaObjectE@Base 2.0.0
 _ZN5Peony17FileLaunchManager18getFallbackActionsERK7QString@Base 2.0.0
 _ZN5Peony17FileLaunchManager19getRecommendActionsERK7QString@Base 2.0.0
 _ZN5Peony17FileLaunchManager20getAllActionsForTypeERK7QString@Base 2.0.0
 _ZN5Peony17FileLaunchManager21setDefaultLauchActionERK7QStringPNS_16FileLaunchActionE@Base 2.0.0
#MISSING: 2.2.0# _ZN5Peony17FileLaunchManager8openSyncERK7QString@Base 2.0.0
 _ZN5Peony17FileLaunchManager8openSyncERK7QStringbb@Base 2.2.0
#MISSING: 2.2.0# _ZN5Peony17FileLaunchManager9openAsyncERK7QString@Base 2.0.0
 _ZN5Peony17FileLaunchManager9openAsyncERK7QStringbb@Base 2.2.0
 _ZN5Peony17FileLaunchManagerC1EP7QObject@Base 2.0.0
 _ZN5Peony17FileLaunchManagerC2EP7QObject@Base 2.0.0
 _ZN5Peony17FileLaunchManagerD0Ev@Base 2.0.0
 _ZN5Peony17FileLaunchManagerD1Ev@Base 2.0.0
 _ZN5Peony17FileLaunchManagerD2Ev@Base 2.0.0
 _ZN5Peony17FileLinkOperation11qt_metacallEN11QMetaObject4CallEiPPv@Base 2.0.0
 _ZN5Peony17FileLinkOperation11qt_metacastEPKc@Base 2.0.0
 _ZN5Peony17FileLinkOperation16getOperationInfoEv@Base 2.0.0
 _ZN5Peony17FileLinkOperation16staticMetaObjectE@Base 2.0.0
 _ZN5Peony17FileLinkOperation3runEv@Base 2.0.0
 _ZN5Peony17FileLinkOperationC1E7QStringS1_P7QObject@Base 2.0.0
 _ZN5Peony17FileLinkOperationC2E7QStringS1_P7QObject@Base 2.0.0
 _ZN5Peony17FileLinkOperationD0Ev@Base 2.0.0
 _ZN5Peony17FileLinkOperationD1Ev@Base 2.0.0
 _ZN5Peony17FileLinkOperationD2Ev@Base 2.0.0
 _ZN5Peony17FileMoveOperation11qt_metacallEN11QMetaObject4CallEiPPv@Base 2.0.0
 _ZN5Peony17FileMoveOperation11qt_metacastEPKc@Base 2.0.0
 _ZN5Peony17FileMoveOperation15copyRecursivelyEPNS_8FileNodeE@Base 2.0.0
 _ZN5Peony17FileMoveOperation16getOperationInfoEv@Base 2.0.0
 _ZN5Peony17FileMoveOperation16staticMetaObjectE@Base 2.0.0
 _ZN5Peony17FileMoveOperation17deleteRecursivelyEPNS_8FileNodeE@Base 2.0.0
 (arch= !armel !armhf !i386 !mipsel !hppa !m68k !sh4 !x32)_ZN5Peony17FileMoveOperation17progress_callbackEllPS0_@Base 2.0.0
 (arch=armel)_ZN5Peony17FileMoveOperation17progress_callbackExxPS0_@Base 2.0.1
 _ZN5Peony17FileMoveOperation20moveForceUseFallbackEv@Base 2.0.0
 _ZN5Peony17FileMoveOperation23rollbackNodeRecursivelyEPNS_8FileNodeE@Base 2.0.0
 _ZN5Peony17FileMoveOperation3runEv@Base 2.0.0
 _ZN5Peony17FileMoveOperation4moveEv@Base 2.0.0
 _ZN5Peony17FileMoveOperation6cancelEv@Base 2.0.0
 _ZN5Peony17FileMoveOperation7isValidEv@Base 2.0.0
 _ZN5Peony17FileMoveOperation9prehandleEP7_GError@Base 2.0.0
 _ZN5Peony17FileMoveOperationC1E11QStringList7QStringP7QObject@Base 2.0.0
 _ZN5Peony17FileMoveOperationC2E11QStringList7QStringP7QObject@Base 2.0.0
 _ZN5Peony17FileMoveOperationD0Ev@Base 2.0.0
 _ZN5Peony17FileMoveOperationD1Ev@Base 2.0.0
 _ZN5Peony17FileMoveOperationD2Ev@Base 2.0.0
 _ZN5Peony17FileOperationInfo11qt_metacallEN11QMetaObject4CallEiPPv@Base 2.0.0
 _ZN5Peony17FileOperationInfo11qt_metacastEPKc@Base 2.0.0
 _ZN5Peony17FileOperationInfo15getOppositeInfoEPS0_@Base 2.1.0
 _ZN5Peony17FileOperationInfo16staticMetaObjectE@Base 2.0.0
 _ZN5Peony17FileOperationInfoC1E11QStringList7QStringNS0_4TypeEP7QObject@Base 2.0.0
 _ZN5Peony17FileOperationInfoC2E11QStringList7QStringNS0_4TypeEP7QObject@Base 2.0.0
 _ZN5Peony17FileOperationInfoD0Ev@Base 2.0.0
 _ZN5Peony17FileOperationInfoD1Ev@Base 2.0.0
 _ZN5Peony17FileOperationInfoD2Ev@Base 2.0.0
 _ZN5Peony17MenuPluginManager11getInstanceEv@Base 2.0.0
 _ZN5Peony17MenuPluginManager11qt_metacallEN11QMetaObject4CallEiPPv@Base 2.0.0
 _ZN5Peony17MenuPluginManager11qt_metacastEPKc@Base 2.0.0
 _ZN5Peony17MenuPluginManager12getPluginIdsEv@Base 2.0.0
 _ZN5Peony17MenuPluginManager14registerPluginEPNS_19MenuPluginInterfaceE@Base 2.0.0
 _ZN5Peony17MenuPluginManager16staticMetaObjectE@Base 2.0.0
 _ZN5Peony17MenuPluginManager5closeEv@Base 2.0.0
 _ZN5Peony17MenuPluginManager9getPluginERK7QString@Base 2.0.0
 _ZN5Peony17MenuPluginManagerC1EP7QObject@Base 2.0.0
 _ZN5Peony17MenuPluginManagerC2EP7QObject@Base 2.0.0
 _ZN5Peony17MenuPluginManagerD0Ev@Base 2.0.0
 _ZN5Peony17MenuPluginManagerD1Ev@Base 2.0.0
 _ZN5Peony17MenuPluginManagerD2Ev@Base 2.0.0
 _ZN5Peony17NavigationToolBar11onGoForwardEv@Base 2.0.0
 _ZN5Peony17NavigationToolBar11qt_metacallEN11QMetaObject4CallEiPPv@Base 2.0.0
 _ZN5Peony17NavigationToolBar11qt_metacastEPKc@Base 2.0.0
 _ZN5Peony17NavigationToolBar12canGoForwardEv@Base 2.0.0
 _ZN5Peony17NavigationToolBar12clearHistoryEv@Base 2.0.0
 _ZN5Peony17NavigationToolBar13updateActionsEv@Base 2.0.0
 _ZN5Peony17NavigationToolBar14refreshRequestEv@Base 2.0.0
 _ZN5Peony17NavigationToolBar16staticMetaObjectE@Base 2.0.0
 _ZN5Peony17NavigationToolBar19setCurrentContainerEPNS_22DirectoryViewContainerE@Base 2.0.0
 _ZN5Peony17NavigationToolBar27updateWindowLocationRequestERK7QStringbb@Base 2.0.0
 _ZN5Peony17NavigationToolBar7canCdUpEv@Base 2.0.0
 _ZN5Peony17NavigationToolBar8onGoBackEv@Base 2.0.0
 _ZN5Peony17NavigationToolBar9canGoBackEv@Base 2.0.0
 _ZN5Peony17NavigationToolBar9onGoToUriERK7QStringbb@Base 2.0.0
 _ZN5Peony17NavigationToolBarC1EP7QWidget@Base 2.0.0
 _ZN5Peony17NavigationToolBarC2EP7QWidget@Base 2.0.0
 _ZN5Peony17NavigationToolBarD0Ev@Base 2.0.0
 _ZN5Peony17NavigationToolBarD1Ev@Base 2.0.0
 _ZN5Peony17NavigationToolBarD2Ev@Base 2.0.0
 _ZN5Peony17SearchVFSRegister15registSearchVFSEv@Base 2.0.0
 _ZN5Peony17SearchVFSRegisterC1Ev@Base 2.0.0
 _ZN5Peony17SearchVFSRegisterC2Ev@Base 2.0.0
 _ZN5Peony17ViewFactoryModel211qt_metacallEN11QMetaObject4CallEiPPv@Base 2.0.0
 _ZN5Peony17ViewFactoryModel211qt_metacastEPKc@Base 2.0.0
 _ZN5Peony17ViewFactoryModel215setDirectoryUriERK7QString@Base 2.0.0
 _ZN5Peony17ViewFactoryModel216staticMetaObjectE@Base 2.0.0
 _ZN5Peony17ViewFactoryModel218getIndexFromViewIdERK7QString@Base 2.0.0
 _ZN5Peony17ViewFactoryModel224getHighestPriorityViewIdEi@Base 2.0.0
 _ZN5Peony17ViewFactoryModel29getViewIdEi@Base 2.0.0
 _ZN5Peony17ViewFactoryModel2C1EP7QObject@Base 2.0.0
 _ZN5Peony17ViewFactoryModel2C2EP7QObject@Base 2.0.0
 _ZN5Peony17ViewFactoryModel2D0Ev@Base 2.0.0
 _ZN5Peony17ViewFactoryModel2D1Ev@Base 2.0.0
 _ZN5Peony17ViewFactoryModel2D2Ev@Base 2.0.0
 _ZN5Peony18ComplementaryStyle11qt_metacallEN11QMetaObject4CallEiPPv@Base 2.0.0
 _ZN5Peony18ComplementaryStyle11qt_metacastEPKc@Base 2.0.0
 _ZN5Peony18ComplementaryStyle16staticMetaObjectE@Base 2.0.0
 _ZN5Peony18ComplementaryStyle6polishEP7QWidget@Base 2.1.0
 _ZN5Peony18ComplementaryStyle8getStyleEv@Base 2.0.0
 _ZN5Peony18ComplementaryStyleC1EP6QStyle@Base 2.0.0
 _ZN5Peony18ComplementaryStyleC2EP6QStyle@Base 2.0.0
 _ZN5Peony18ComplementaryStyleD0Ev@Base 2.0.0
 _ZN5Peony18ComplementaryStyleD1Ev@Base 2.0.0
 _ZN5Peony18ComplementaryStyleD2Ev@Base 2.0.0
 _ZN5Peony18DefaultPreviewPage10paintEventEP11QPaintEvent@Base 2.0.0
 _ZN5Peony18DefaultPreviewPage11eventFilterEP7QObjectP6QEvent@Base 2.0.0
 _ZN5Peony18DefaultPreviewPage11qt_metacallEN11QMetaObject4CallEiPPv@Base 2.0.0
 _ZN5Peony18DefaultPreviewPage11qt_metacastEPKc@Base 2.0.0
 _ZN5Peony18DefaultPreviewPage12startPreviewEv@Base 2.0.0
 _ZN5Peony18DefaultPreviewPage16closePreviewPageEv@Base 2.0.0
 _ZN5Peony18DefaultPreviewPage16staticMetaObjectE@Base 2.0.0
 _ZN5Peony18DefaultPreviewPage6cancelEv@Base 2.0.0
 _ZN5Peony18DefaultPreviewPage7prepareERK7QString@Base 2.0.0
 _ZN5Peony18DefaultPreviewPage7prepareERK7QStringNS_16PreviewPageIface11PreviewTypeE@Base 2.0.0
 _ZN5Peony18DefaultPreviewPageC1EP7QWidget@Base 2.0.0
 _ZN5Peony18DefaultPreviewPageC2EP7QWidget@Base 2.0.0
 _ZN5Peony18DefaultPreviewPageD0Ev@Base 2.0.0
 _ZN5Peony18DefaultPreviewPageD1Ev@Base 2.0.0
 _ZN5Peony18DefaultPreviewPageD2Ev@Base 2.0.0
 _ZN5Peony18FileCountOperation11qt_metacallEN11QMetaObject4CallEiPPv@Base 2.0.0
 _ZN5Peony18FileCountOperation11qt_metacastEPKc@Base 2.0.0
 _ZN5Peony18FileCountOperation16getOperationInfoEv@Base 2.0.0
 _ZN5Peony18FileCountOperation16staticMetaObjectE@Base 2.0.0
 _ZN5Peony18FileCountOperation3runEv@Base 2.0.0
 _ZN5Peony18FileCountOperation6cancelEv@Base 2.0.0
 _ZN5Peony18FileCountOperation9countDoneEyyy@Base 2.0.0
 _ZN5Peony18FileCountOperationC1ERK11QStringListbP7QObject@Base 2.0.0
 _ZN5Peony18FileCountOperationC2ERK11QStringListbP7QObject@Base 2.0.0
 _ZN5Peony18FileCountOperationD0Ev@Base 2.0.0
 _ZN5Peony18FileCountOperationD1Ev@Base 2.0.0
 _ZN5Peony18FileCountOperationD2Ev@Base 2.0.0
 _ZN5Peony18FileOperationUtils13queryFileInfoERK7QString@Base 2.0.0
 _ZN5Peony18FileOperationUtils27leftNameLesserThanRightNameERK7QStringS3_@Base 2.0.0
 _ZN5Peony18FileOperationUtils29executeRemoveActionWithDialogERK11QStringList@Base 2.0.0
 _ZN5Peony18FileOperationUtils35leftNameIsDuplicatedFileOfRightNameERK7QStringS3_@Base 2.0.0
 _ZN5Peony18FileOperationUtils4copyERK11QStringListRK7QStringb@Base 2.0.0
 _ZN5Peony18FileOperationUtils4linkERK7QStringS3_b@Base 2.0.0
 _ZN5Peony18FileOperationUtils4moveERK11QStringListRK7QStringbb@Base 2.0.1
 _ZN5Peony18FileOperationUtils5trashERK11QStringListb@Base 2.0.0
 _ZN5Peony18FileOperationUtils6createERK7QStringS3_NS_23CreateTemplateOperation4TypeE@Base 2.0.0
 _ZN5Peony18FileOperationUtils6removeERK11QStringList@Base 2.0.0
 _ZN5Peony18FileOperationUtils6renameERK7QStringS3_b@Base 2.0.0
 _ZN5Peony18FileOperationUtils7restoreERK11QStringList@Base 2.0.0
 _ZN5Peony18FileOperationUtils7restoreERK7QString@Base 2.0.0
 _ZN5Peony18FileOperationUtilsC1Ev@Base 2.0.0
 _ZN5Peony18FileOperationUtilsC2Ev@Base 2.0.0
 _ZN5Peony18FileTrashOperation11qt_metacallEN11QMetaObject4CallEiPPv@Base 2.0.0
 _ZN5Peony18FileTrashOperation11qt_metacastEPKc@Base 2.0.0
 _ZN5Peony18FileTrashOperation16getOperationInfoEv@Base 2.0.0
 _ZN5Peony18FileTrashOperation16staticMetaObjectE@Base 2.0.0
 _ZN5Peony18FileTrashOperation3runEv@Base 2.0.0
 _ZN5Peony18FileTrashOperationC1E11QStringListP7QObject@Base 2.0.0
 _ZN5Peony18FileTrashOperationC2E11QStringListP7QObject@Base 2.0.0
 _ZN5Peony18FileTrashOperationD0Ev@Base 2.0.0
 _ZN5Peony18FileTrashOperationD1Ev@Base 2.0.0
 _ZN5Peony18FileTrashOperationD2Ev@Base 2.0.0
 _ZN5Peony18IconContainerStyleC1Ev@Base 2.1.0
 _ZN5Peony18IconContainerStyleC2Ev@Base 2.1.0
 _ZN5Peony18IconContainerStyleD0Ev@Base 2.1.0
 _ZN5Peony18IconContainerStyleD1Ev@Base 2.1.0
 _ZN5Peony18IconContainerStyleD2Ev@Base 2.1.0
 _ZN5Peony18SearchBarContainer11qt_metacallEN11QMetaObject4CallEiPPv@Base 2.1.0
 _ZN5Peony18SearchBarContainer11qt_metacastEPKc@Base 2.1.0
 _ZN5Peony18SearchBarContainer11startSearchEv@Base 2.2.0
 _ZN5Peony18SearchBarContainer12filterUpdateERKi@Base 2.1.0
 _ZN5Peony18SearchBarContainer13returnPressedEv@Base 2.1.0
 _ZN5Peony18SearchBarContainer14clearSearchBoxEv@Base 2.2.0
 _ZN5Peony18SearchBarContainer14onTableClickedERK11QModelIndex@Base 2.1.0
 _ZN5Peony18SearchBarContainer16staticMetaObjectE@Base 2.1.0
 _ZN5Peony18SearchBarContainerC1EP7QWidget@Base 2.1.0
 _ZN5Peony18SearchBarContainerC2EP7QWidget@Base 2.1.0
 _ZN5Peony18SearchBarContainerD0Ev@Base 2.1.0
 _ZN5Peony18SearchBarContainerD1Ev@Base 2.1.0
 _ZN5Peony18SearchBarContainerD2Ev@Base 2.1.0
#MISSING: 2.1.0# _ZN5Peony18SearchVFSUriParser14parseSearchKeyERK7QStringS3_RKbS5_@Base 2.0.0
 _ZN5Peony18SearchVFSUriParser14parseSearchKeyERK7QStringS3_RKbS5_S3_S5_@Base 2.1.0
 _ZN5Peony18SearchVFSUriParser22getSearchUriNameRegexpERK7QString@Base 2.0.0
 _ZN5Peony18SearchVFSUriParser27getSearchUriTargetDirectoryERK7QString@Base 2.0.0
 _ZN5Peony18SearchVFSUriParserC1Ev@Base 2.0.0
 _ZN5Peony18SearchVFSUriParserC2Ev@Base 2.0.0
 _ZN5Peony18wrapGVolumeMonitorEP15_GVolumeMonitor@Base 2.0.0
 _ZN5Peony19AdvancedLocationBar10finishEditEv@Base 2.0.0
 _ZN5Peony19AdvancedLocationBar11qt_metacallEN11QMetaObject4CallEiPPv@Base 2.0.0
 _ZN5Peony19AdvancedLocationBar11qt_metacastEPKc@Base 2.0.0
 _ZN5Peony19AdvancedLocationBar13searchRequestERK7QString@Base 2.1.0
 _ZN5Peony19AdvancedLocationBar14clearSearchBoxEv@Base 2.2.0
 _ZN5Peony19AdvancedLocationBar14refreshRequestEv@Base 2.0.0
 _ZN5Peony19AdvancedLocationBar14switchEditModeEb@Base 2.1.0
 _ZN5Peony19AdvancedLocationBar14updateLocationERK7QString@Base 2.0.0
 _ZN5Peony19AdvancedLocationBar16staticMetaObjectE@Base 2.0.0
 _ZN5Peony19AdvancedLocationBar20updateFileTypeFilterERKi@Base 2.1.0
 _ZN5Peony19AdvancedLocationBar27updateWindowLocationRequestERK7QStringbb@Base 2.0.0
 _ZN5Peony19AdvancedLocationBar9isEditingEv@Base 2.0.0
 _ZN5Peony19AdvancedLocationBar9startEditEv@Base 2.0.0
 _ZN5Peony19AdvancedLocationBarC1EP7QWidget@Base 2.0.0
 _ZN5Peony19AdvancedLocationBarC2EP7QWidget@Base 2.0.0
 _ZN5Peony19AdvancedLocationBarD0Ev@Base 2.0.0
 _ZN5Peony19AdvancedLocationBarD1Ev@Base 2.0.0
 _ZN5Peony19AdvancedLocationBarD2Ev@Base 2.0.0
 _ZN5Peony19BasicPropertiesPage10updateInfoERK7QString@Base 2.0.0
 _ZN5Peony19BasicPropertiesPage11cancelCountEv@Base 2.0.0
 _ZN5Peony19BasicPropertiesPage11qt_metacallEN11QMetaObject4CallEiPPv@Base 2.0.0
 _ZN5Peony19BasicPropertiesPage11qt_metacastEPKc@Base 2.0.0
 _ZN5Peony19BasicPropertiesPage12addSeparatorEv@Base 2.0.0
 _ZN5Peony19BasicPropertiesPage14onFileCountOneERK7QStringy@Base 2.0.0
 _ZN5Peony19BasicPropertiesPage15countFilesAsyncERK11QStringList@Base 2.0.0
 _ZN5Peony19BasicPropertiesPage15updateCountInfoEv@Base 2.0.0
 _ZN5Peony19BasicPropertiesPage16staticMetaObjectE@Base 2.0.0
 _ZN5Peony19BasicPropertiesPage19onSingleFileChangedERK7QStringS3_@Base 2.0.0
 _ZN5Peony19BasicPropertiesPageC1ERK11QStringListP7QWidget@Base 2.0.0
 _ZN5Peony19BasicPropertiesPageC2ERK11QStringListP7QWidget@Base 2.0.0
 _ZN5Peony19BasicPropertiesPageD0Ev@Base 2.0.0
 _ZN5Peony19BasicPropertiesPageD1Ev@Base 2.0.0
 _ZN5Peony19BasicPropertiesPageD2Ev@Base 2.0.0
 _ZN5Peony19DirectoryViewWidget11getSortTypeEv@Base 2.0.0
 _ZN5Peony19DirectoryViewWidget11menuRequestERK6QPoint@Base 2.0.0
 _ZN5Peony19DirectoryViewWidget11qt_metacallEN11QMetaObject4CallEiPPv@Base 2.0.0
 _ZN5Peony19DirectoryViewWidget11qt_metacastEPKc@Base 2.0.0
 _ZN5Peony19DirectoryViewWidget11repaintViewEv@Base 2.0.0
 _ZN5Peony19DirectoryViewWidget11setCutFilesERK11QStringList@Base 2.0.0
 _ZN5Peony19DirectoryViewWidget11setSortTypeEi@Base 2.0.0
 _ZN5Peony19DirectoryViewWidget11supportZoomEv@Base 2.1.0
 _ZN5Peony19DirectoryViewWidget11zoomRequestEb@Base 2.1.0
 _ZN5Peony19DirectoryViewWidget12getSortOrderEv@Base 2.0.0
 _ZN5Peony19DirectoryViewWidget12setSortOrderEi@Base 2.0.0
 _ZN5Peony19DirectoryViewWidget13getSelectionsEv@Base 2.0.0
 _ZN5Peony19DirectoryViewWidget13setSelectionsERK11QStringList@Base 2.0.0
 _ZN5Peony19DirectoryViewWidget14getAllFileUrisEv@Base 2.0.0
 _ZN5Peony19DirectoryViewWidget15getDirectoryUriEv@Base 2.0.0
 _ZN5Peony19DirectoryViewWidget15setDirectoryUriERK7QString@Base 2.0.0
 _ZN5Peony19DirectoryViewWidget15sortTypeChangedEi@Base 2.0.0
 _ZN5Peony19DirectoryViewWidget16clearIndexWidgetEv@Base 2.1.0
 _ZN5Peony19DirectoryViewWidget16currentZoomLevelEv@Base 2.1.0
 _ZN5Peony19DirectoryViewWidget16invertSelectionsEv@Base 2.0.0
 _ZN5Peony19DirectoryViewWidget16maximumZoomLevelEv@Base 2.1.0
 _ZN5Peony19DirectoryViewWidget16minimumZoomLevelEv@Base 2.1.0
 _ZN5Peony19DirectoryViewWidget16sortOrderChangedEN2Qt9SortOrderE@Base 2.0.0
 _ZN5Peony19DirectoryViewWidget16staticMetaObjectE@Base 2.0.0
 _ZN5Peony19DirectoryViewWidget17scrollToSelectionERK7QString@Base 2.0.0
 _ZN5Peony19DirectoryViewWidget17viewDoubleClickedERK7QString@Base 2.0.0
 _ZN5Peony19DirectoryViewWidget18closeDirectoryViewEv@Base 2.0.0
 _ZN5Peony19DirectoryViewWidget18stopLocationChangeEv@Base 2.0.0
 _ZN5Peony19DirectoryViewWidget19beginLocationChangeEv@Base 2.0.0
 _ZN5Peony19DirectoryViewWidget19setCurrentZoomLevelEi@Base 2.1.0
 _ZN5Peony19DirectoryViewWidget20viewDirectoryChangedEv@Base 2.0.0
 _ZN5Peony19DirectoryViewWidget20viewSelectionChangedEv@Base 2.0.0
 _ZN5Peony19DirectoryViewWidget27updateWindowLocationRequestERK7QString@Base 2.0.0
 _ZN5Peony19DirectoryViewWidget6viewIdEv@Base 2.0.0
 _ZN5Peony19DirectoryViewWidget7editUriERK7QString@Base 2.0.0
 _ZN5Peony19DirectoryViewWidget8editUrisE11QStringList@Base 2.0.0
 _ZN5Peony19DirectoryViewWidget9bindModelEPNS_13FileItemModelEPNS_28FileItemProxyFilterSortModelE@Base 2.0.0
 _ZN5Peony19DirectoryViewWidgetC1EP7QWidget@Base 2.0.0
 _ZN5Peony19DirectoryViewWidgetC2EP7QWidget@Base 2.0.0
 _ZN5Peony19DirectoryViewWidgetD0Ev@Base 2.0.0
 _ZN5Peony19DirectoryViewWidgetD1Ev@Base 2.0.0
 _ZN5Peony19DirectoryViewWidgetD2Ev@Base 2.0.0
 _ZN5Peony19FileDeleteOperation11qt_metacallEN11QMetaObject4CallEiPPv@Base 2.0.0
 _ZN5Peony19FileDeleteOperation11qt_metacastEPKc@Base 2.0.0
 _ZN5Peony19FileDeleteOperation16getOperationInfoEv@Base 2.1.0
 _ZN5Peony19FileDeleteOperation16staticMetaObjectE@Base 2.0.0
 _ZN5Peony19FileDeleteOperation17deleteRecursivelyEPNS_8FileNodeE@Base 2.0.0
 _ZN5Peony19FileDeleteOperation3runEv@Base 2.0.0
 _ZN5Peony19FileDeleteOperation6cancelEv@Base 2.0.0
 _ZN5Peony19FileDeleteOperationC1E11QStringListP7QObject@Base 2.0.0
 _ZN5Peony19FileDeleteOperationC2E11QStringListP7QObject@Base 2.0.0
 _ZN5Peony19FileDeleteOperationD0Ev@Base 2.0.0
 _ZN5Peony19FileDeleteOperationD1Ev@Base 2.0.0
 _ZN5Peony19FileDeleteOperationD2Ev@Base 2.0.0
 _ZN5Peony19FileRenameOperation11qt_metacallEN11QMetaObject4CallEiPPv@Base 2.0.0
 _ZN5Peony19FileRenameOperation11qt_metacastEPKc@Base 2.0.0
 _ZN5Peony19FileRenameOperation16getOperationInfoEv@Base 2.0.0
 _ZN5Peony19FileRenameOperation16staticMetaObjectE@Base 2.0.0
 _ZN5Peony19FileRenameOperation3runEv@Base 2.0.0
 _ZN5Peony19FileRenameOperationC1E7QStringS1_@Base 2.0.0
 _ZN5Peony19FileRenameOperationC2E7QStringS1_@Base 2.0.0
 _ZN5Peony19FileRenameOperationD0Ev@Base 2.0.0
 _ZN5Peony19FileRenameOperationD1Ev@Base 2.0.0
 _ZN5Peony19FileRenameOperationD2Ev@Base 2.0.0
 _ZN5Peony19SideBarAbstractItem11qt_metacallEN11QMetaObject4CallEiPPv@Base 2.0.0
 _ZN5Peony19SideBarAbstractItem11qt_metacastEPKc@Base 2.0.0
 _ZN5Peony19SideBarAbstractItem13clearChildrenEv@Base 2.0.0
 _ZN5Peony19SideBarAbstractItem16staticMetaObjectE@Base 2.0.0
 _ZN5Peony19SideBarAbstractItem20findChildrenFinishedEv@Base 2.0.0
 _ZN5Peony19SideBarAbstractItem7updatedEv@Base 2.0.0
 _ZN5Peony19SideBarAbstractItem9isMountedEv@Base 2.0.0
 _ZN5Peony19SideBarAbstractItemC1EPNS_12SideBarModelEP7QObject@Base 2.0.0
 _ZN5Peony19SideBarAbstractItemC2EPNS_12SideBarModelEP7QObject@Base 2.0.0
 _ZN5Peony19SideBarAbstractItemD0Ev@Base 2.0.0
 _ZN5Peony19SideBarAbstractItemD1Ev@Base 2.0.0
 _ZN5Peony19SideBarAbstractItemD2Ev@Base 2.0.0
 _ZN5Peony19SideBarFavoriteItem11displayNameEv@Base 2.0.0
 _ZN5Peony19SideBarFavoriteItem11hasChildrenEv@Base 2.0.0
 _ZN5Peony19SideBarFavoriteItem11isEjectableEv@Base 2.0.0
 _ZN5Peony19SideBarFavoriteItem11isMountableEv@Base 2.0.0
 _ZN5Peony19SideBarFavoriteItem11qt_metacallEN11QMetaObject4CallEiPPv@Base 2.0.0
 _ZN5Peony19SideBarFavoriteItem11qt_metacastEPKc@Base 2.0.0
 _ZN5Peony19SideBarFavoriteItem12findChildrenEv@Base 2.0.0
 _ZN5Peony19SideBarFavoriteItem12isRemoveableEv@Base 2.0.0
 _ZN5Peony19SideBarFavoriteItem12syncBookMarkEv@Base 2.0.0
 _ZN5Peony19SideBarFavoriteItem13clearChildrenEv@Base 2.0.0
 _ZN5Peony19SideBarFavoriteItem15lastColumnIndexEv@Base 2.0.0
 _ZN5Peony19SideBarFavoriteItem16firstColumnIndexEv@Base 2.0.0
 _ZN5Peony19SideBarFavoriteItem16staticMetaObjectE@Base 2.0.0
 _ZN5Peony19SideBarFavoriteItem17findChildrenAsyncEv@Base 2.0.0
 _ZN5Peony19SideBarFavoriteItem3uriEv@Base 2.0.0
 _ZN5Peony19SideBarFavoriteItem4typeEv@Base 2.0.0
 _ZN5Peony19SideBarFavoriteItem5ejectEv@Base 2.0.0
 _ZN5Peony19SideBarFavoriteItem6formatEv@Base 2.0.0
 _ZN5Peony19SideBarFavoriteItem6parentEv@Base 2.0.0
 _ZN5Peony19SideBarFavoriteItem7unmountEv@Base 2.0.0
 _ZN5Peony19SideBarFavoriteItem8iconNameEv@Base 2.0.0
 _ZN5Peony19SideBarFavoriteItem9onUpdatedEv@Base 2.0.0
 _ZN5Peony19SideBarFavoriteItemC1E7QStringPS0_PNS_12SideBarModelEP7QObject@Base 2.0.0
 _ZN5Peony19SideBarFavoriteItemC2E7QStringPS0_PNS_12SideBarModelEP7QObject@Base 2.0.0
 _ZN5Peony19SideBarFavoriteItemD0Ev@Base 2.0.0
 _ZN5Peony19SideBarFavoriteItemD1Ev@Base 2.0.0
 _ZN5Peony19SideBarFavoriteItemD2Ev@Base 2.0.0
 _ZN5Peony19SideBarPersonalItem11displayNameEv@Base 2.0.0
 _ZN5Peony19SideBarPersonalItem11hasChildrenEv@Base 2.0.0
 _ZN5Peony19SideBarPersonalItem11isEjectableEv@Base 2.0.0
 _ZN5Peony19SideBarPersonalItem11isMountableEv@Base 2.0.0
 _ZN5Peony19SideBarPersonalItem11qt_metacallEN11QMetaObject4CallEiPPv@Base 2.0.0
 _ZN5Peony19SideBarPersonalItem11qt_metacastEPKc@Base 2.0.0
 _ZN5Peony19SideBarPersonalItem12findChildrenEv@Base 2.0.0
 _ZN5Peony19SideBarPersonalItem12isRemoveableEv@Base 2.0.0
 _ZN5Peony19SideBarPersonalItem13clearChildrenEv@Base 2.0.0
 _ZN5Peony19SideBarPersonalItem15lastColumnIndexEv@Base 2.0.0
 _ZN5Peony19SideBarPersonalItem16firstColumnIndexEv@Base 2.0.0
 _ZN5Peony19SideBarPersonalItem16staticMetaObjectE@Base 2.0.0
 _ZN5Peony19SideBarPersonalItem17findChildrenAsyncEv@Base 2.0.0
 _ZN5Peony19SideBarPersonalItem3uriEv@Base 2.0.0
 _ZN5Peony19SideBarPersonalItem4typeEv@Base 2.0.0
 _ZN5Peony19SideBarPersonalItem5ejectEv@Base 2.0.0
 _ZN5Peony19SideBarPersonalItem6formatEv@Base 2.0.0
 _ZN5Peony19SideBarPersonalItem6parentEv@Base 2.0.0
 _ZN5Peony19SideBarPersonalItem7unmountEv@Base 2.0.0
 _ZN5Peony19SideBarPersonalItem8iconNameEv@Base 2.0.0
 _ZN5Peony19SideBarPersonalItem9onUpdatedEv@Base 2.0.0
 _ZN5Peony19SideBarPersonalItemC1E7QStringPS0_PNS_12SideBarModelEP7QObject@Base 2.0.0
 _ZN5Peony19SideBarPersonalItemC2E7QStringPS0_PNS_12SideBarModelEP7QObject@Base 2.0.0
 _ZN5Peony19SideBarPersonalItemD0Ev@Base 2.0.0
 _ZN5Peony19SideBarPersonalItemD1Ev@Base 2.0.0
 _ZN5Peony19SideBarPersonalItemD2Ev@Base 2.0.0
 _ZN5Peony19wrapGFileEnumeratorEP16_GFileEnumerator@Base 2.0.0
 _ZN5Peony20FileOperationManager11getInstanceEv@Base 2.0.0
 _ZN5Peony20FileOperationManager11getRedoInfoEv@Base 2.0.0
 _ZN5Peony20FileOperationManager11getUndoInfoEv@Base 2.0.0
 _ZN5Peony20FileOperationManager11handleErrorERK7QStringS3_RKSt10shared_ptrINS_13GErrorWrapperEEb@Base 2.0.0
 _ZN5Peony20FileOperationManager11qt_metacallEN11QMetaObject4CallEiPPv@Base 2.0.0
 _ZN5Peony20FileOperationManager11qt_metacastEPKc@Base 2.0.0
 _ZN5Peony20FileOperationManager12clearHistoryEv@Base 2.0.0
 _ZN5Peony20FileOperationManager14onFilesDeletedERK11QStringList@Base 2.0.0
 _ZN5Peony20FileOperationManager14startOperationEPNS_13FileOperationEb@Base 2.0.0
 _ZN5Peony20FileOperationManager15isAllowParallelEv@Base 2.2.0
 _ZN5Peony20FileOperationManager15startUndoOrRedoESt10shared_ptrINS_17FileOperationInfoEE@Base 2.0.0
 _ZN5Peony20FileOperationManager16setAllowParallelEb@Base 2.2.0
 _ZN5Peony20FileOperationManager16staticMetaObjectE@Base 2.0.0
 _ZN5Peony20FileOperationManager19registerFileWatcherEPNS_11FileWatcherE@Base 2.2.0
 _ZN5Peony20FileOperationManager21unregisterFileWatcherEPNS_11FileWatcherE@Base 2.2.0
 _ZN5Peony20FileOperationManager30manuallyNotifyDirectoryChangedEPNS_17FileOperationInfoE@Base 2.2.0
 _ZN5Peony20FileOperationManager4redoEv@Base 2.0.0
 _ZN5Peony20FileOperationManager4undoEv@Base 2.0.0
 _ZN5Peony20FileOperationManager5closeEv@Base 2.0.0
 _ZN5Peony20FileOperationManager6closedEv@Base 2.0.0
 _ZN5Peony20FileOperationManager7canRedoEv@Base 2.0.0
 _ZN5Peony20FileOperationManager7canUndoEv@Base 2.0.0
 _ZN5Peony20FileOperationManagerC1EP7QObject@Base 2.0.0
 _ZN5Peony20FileOperationManagerC2EP7QObject@Base 2.0.0
 _ZN5Peony20FileOperationManagerD0Ev@Base 2.0.0
 _ZN5Peony20FileOperationManagerD1Ev@Base 2.0.0
 _ZN5Peony20FileOperationManagerD2Ev@Base 2.0.0
 _ZN5Peony20FileUntrashOperation11qt_metacallEN11QMetaObject4CallEiPPv@Base 2.0.0
 _ZN5Peony20FileUntrashOperation11qt_metacastEPKc@Base 2.0.0
 _ZN5Peony20FileUntrashOperation15handleDuplicateERK7QString@Base 2.0.0
 _ZN5Peony20FileUntrashOperation16cacheOriginalUriEv@Base 2.0.0
 _ZN5Peony20FileUntrashOperation16getOperationInfoEv@Base 2.0.0
 _ZN5Peony20FileUntrashOperation16staticMetaObjectE@Base 2.0.0
 _ZN5Peony20FileUntrashOperation3runEv@Base 2.0.0
 _ZN5Peony20FileUntrashOperationC1E11QStringListP7QObject@Base 2.0.0
 _ZN5Peony20FileUntrashOperationC2E11QStringListP7QObject@Base 2.0.0
 _ZN5Peony20FileUntrashOperationD0Ev@Base 2.0.0
 _ZN5Peony20FileUntrashOperationD1Ev@Base 2.0.0
 _ZN5Peony20FileUntrashOperationD2Ev@Base 2.0.0
 _ZN5Peony20PreviewOptionToolBar11qt_metacallEN11QMetaObject4CallEiPPv@Base 2.0.0
 _ZN5Peony20PreviewOptionToolBar11qt_metacastEPKc@Base 2.0.0
 _ZN5Peony20PreviewOptionToolBar16staticMetaObjectE@Base 2.0.0
 _ZN5Peony20PreviewOptionToolBarC1EP7QWidget@Base 2.0.0
 _ZN5Peony20PreviewOptionToolBarC2EP7QWidget@Base 2.0.0
 _ZN5Peony20PreviewOptionToolBarD0Ev@Base 2.0.0
 _ZN5Peony20PreviewOptionToolBarD1Ev@Base 2.0.0
 _ZN5Peony20PreviewOptionToolBarD2Ev@Base 2.0.0
 _ZN5Peony20PreviewPageContainer10removePageEPNS_16PreviewPageIfaceE@Base 2.0.0
 _ZN5Peony20PreviewPageContainer11qt_metacallEN11QMetaObject4CallEiPPv@Base 2.0.0
 _ZN5Peony20PreviewPageContainer11qt_metacastEPKc@Base 2.0.0
 _ZN5Peony20PreviewPageContainer14getCurrentPageEv@Base 2.0.0
 _ZN5Peony20PreviewPageContainer14setCurrentPageEPNS_16PreviewPageIfaceE@Base 2.0.0
 _ZN5Peony20PreviewPageContainer16staticMetaObjectE@Base 2.0.0
 _ZN5Peony20PreviewPageContainerC1EP7QWidget@Base 2.0.0
 _ZN5Peony20PreviewPageContainerC2EP7QWidget@Base 2.0.0
 _ZN5Peony20PreviewPageContainerD0Ev@Base 2.0.0
 _ZN5Peony20PreviewPageContainerD1Ev@Base 2.0.0
 _ZN5Peony20PreviewPageContainerD2Ev@Base 2.0.0
 _ZN5Peony20SideBarSeparatorItem11displayNameEv@Base 2.0.0
 _ZN5Peony20SideBarSeparatorItem11hasChildrenEv@Base 2.0.0
 _ZN5Peony20SideBarSeparatorItem11isEjectableEv@Base 2.0.0
 _ZN5Peony20SideBarSeparatorItem11isMountableEv@Base 2.0.0
 _ZN5Peony20SideBarSeparatorItem11qt_metacallEN11QMetaObject4CallEiPPv@Base 2.0.0
 _ZN5Peony20SideBarSeparatorItem11qt_metacastEPKc@Base 2.0.0
 _ZN5Peony20SideBarSeparatorItem12findChildrenEv@Base 2.0.0
 _ZN5Peony20SideBarSeparatorItem12isRemoveableEv@Base 2.0.0
 _ZN5Peony20SideBarSeparatorItem13clearChildrenEv@Base 2.0.0
 _ZN5Peony20SideBarSeparatorItem15lastColumnIndexEv@Base 2.0.0
 _ZN5Peony20SideBarSeparatorItem16firstColumnIndexEv@Base 2.0.0
 _ZN5Peony20SideBarSeparatorItem16staticMetaObjectE@Base 2.0.0
 _ZN5Peony20SideBarSeparatorItem17findChildrenAsyncEv@Base 2.0.0
 _ZN5Peony20SideBarSeparatorItem3uriEv@Base 2.0.0
 _ZN5Peony20SideBarSeparatorItem4typeEv@Base 2.0.0
 _ZN5Peony20SideBarSeparatorItem5ejectEv@Base 2.0.0
 _ZN5Peony20SideBarSeparatorItem6formatEv@Base 2.0.0
 _ZN5Peony20SideBarSeparatorItem6parentEv@Base 2.0.0
 _ZN5Peony20SideBarSeparatorItem7unmountEv@Base 2.0.0
 _ZN5Peony20SideBarSeparatorItem8iconNameEv@Base 2.0.0
 _ZN5Peony20SideBarSeparatorItem9onUpdatedEv@Base 2.0.0
 _ZN5Peony20SideBarSeparatorItemC1ENS0_7DetailsEPNS_19SideBarAbstractItemEPNS_12SideBarModelEP7QObject@Base 2.0.0
 _ZN5Peony20SideBarSeparatorItemC2ENS0_7DetailsEPNS_19SideBarAbstractItemEPNS_12SideBarModelEP7QObject@Base 2.0.0
 _ZN5Peony20SideBarSeparatorItemD0Ev@Base 2.0.0
 _ZN5Peony20SideBarSeparatorItemD1Ev@Base 2.0.0
 _ZN5Peony20SideBarSeparatorItemD2Ev@Base 2.0.0
 _ZN5Peony21SideBarFileSystemItem11displayNameEv@Base 2.0.0
 _ZN5Peony21SideBarFileSystemItem11hasChildrenEv@Base 2.0.0
 _ZN5Peony21SideBarFileSystemItem11initWatcherEv@Base 2.0.0
 _ZN5Peony21SideBarFileSystemItem11isEjectableEv@Base 2.0.0
 _ZN5Peony21SideBarFileSystemItem11isMountableEv@Base 2.0.0
 _ZN5Peony21SideBarFileSystemItem11qt_metacallEN11QMetaObject4CallEiPPv@Base 2.0.0
 _ZN5Peony21SideBarFileSystemItem11qt_metacastEPKc@Base 2.0.0
 _ZN5Peony21SideBarFileSystemItem11stopWatcherEv@Base 2.0.0
 _ZN5Peony21SideBarFileSystemItem12findChildrenEv@Base 2.0.0
 _ZN5Peony21SideBarFileSystemItem12isRemoveableEv@Base 2.0.0
 _ZN5Peony21SideBarFileSystemItem12startWatcherEv@Base 2.0.0
 _ZN5Peony21SideBarFileSystemItem13clearChildrenEv@Base 2.0.0
 _ZN5Peony21SideBarFileSystemItem15lastColumnIndexEv@Base 2.0.0
 _ZN5Peony21SideBarFileSystemItem16firstColumnIndexEv@Base 2.0.0
 _ZN5Peony21SideBarFileSystemItem16staticMetaObjectE@Base 2.0.0
 _ZN5Peony21SideBarFileSystemItem17findChildrenAsyncEv@Base 2.0.0
 _ZN5Peony21SideBarFileSystemItem3uriEv@Base 2.0.0
 _ZN5Peony21SideBarFileSystemItem4typeEv@Base 2.0.0
 _ZN5Peony21SideBarFileSystemItem5ejectEv@Base 2.0.0
 _ZN5Peony21SideBarFileSystemItem6formatEv@Base 2.0.0
 _ZN5Peony21SideBarFileSystemItem6parentEv@Base 2.0.0
 _ZN5Peony21SideBarFileSystemItem7unmountEv@Base 2.0.0
 _ZN5Peony21SideBarFileSystemItem8iconNameEv@Base 2.0.0
 _ZN5Peony21SideBarFileSystemItem9isMountedEv@Base 2.0.0
 _ZN5Peony21SideBarFileSystemItem9onUpdatedEv@Base 2.0.0
 _ZN5Peony21SideBarFileSystemItemC1E7QStringPS0_PNS_12SideBarModelEP7QObject@Base 2.0.0
 _ZN5Peony21SideBarFileSystemItemC2E7QStringPS0_PNS_12SideBarModelEP7QObject@Base 2.0.0
 _ZN5Peony21SideBarFileSystemItemD0Ev@Base 2.0.0
 _ZN5Peony21SideBarFileSystemItemD1Ev@Base 2.0.0
 _ZN5Peony21SideBarFileSystemItemD2Ev@Base 2.0.0
 _ZN5Peony22ComputerPropertiesPage11qt_metacallEN11QMetaObject4CallEiPPv@Base 2.0.0
 _ZN5Peony22ComputerPropertiesPage11qt_metacastEPKc@Base 2.0.0
 _ZN5Peony22ComputerPropertiesPage12addSeparatorEv@Base 2.0.0
 _ZN5Peony22ComputerPropertiesPage16staticMetaObjectE@Base 2.0.0
 _ZN5Peony22ComputerPropertiesPageC1ERK7QStringP7QWidget@Base 2.0.0
 _ZN5Peony22ComputerPropertiesPageC2ERK7QStringP7QWidget@Base 2.0.0
 _ZN5Peony22ComputerPropertiesPageD0Ev@Base 2.0.0
 _ZN5Peony22ComputerPropertiesPageD1Ev@Base 2.0.0
 _ZN5Peony22ComputerPropertiesPageD2Ev@Base 2.0.0
 _ZN5Peony22DirectoryViewContainer11getBackListEv@Base 2.0.0
 _ZN5Peony22DirectoryViewContainer11getSortTypeEv@Base 2.0.0
 _ZN5Peony22DirectoryViewContainer11menuRequestERK6QPoint@Base 2.0.0
 _ZN5Peony22DirectoryViewContainer11qt_metacallEN11QMetaObject4CallEiPPv@Base 2.0.0
 _ZN5Peony22DirectoryViewContainer11qt_metacastEPKc@Base 2.0.0
 _ZN5Peony22DirectoryViewContainer11setSortTypeENS_13FileItemModel10ColumnTypeE@Base 2.0.0
 _ZN5Peony22DirectoryViewContainer11stopLoadingEv@Base 2.0.0
 _ZN5Peony22DirectoryViewContainer11zoomRequestEb@Base 2.1.0
 _ZN5Peony22DirectoryViewContainer12bindNewProxyEPNS_23DirectoryViewProxyIfaceE@Base 2.0.0
 _ZN5Peony22DirectoryViewContainer12canGoForwardEv@Base 2.0.0
 _ZN5Peony22DirectoryViewContainer12getSortOrderEv@Base 2.0.0
 _ZN5Peony22DirectoryViewContainer12setSortOrderEN2Qt9SortOrderE@Base 2.0.0
 _ZN5Peony22DirectoryViewContainer12updateFilterEv@Base 2.1.0
 _ZN5Peony22DirectoryViewContainer13getCurrentUriEv@Base 2.0.0
 _ZN5Peony22DirectoryViewContainer13setShowHiddenEb@Base 2.0.0
 _ZN5Peony22DirectoryViewContainer13setSortFilterEiii@Base 2.0.0
 _ZN5Peony22DirectoryViewContainer14getAllFileUrisEv@Base 2.0.0
 _ZN5Peony22DirectoryViewContainer14getForwardListEv@Base 2.0.0
 _ZN5Peony22DirectoryViewContainer14switchViewTypeERK7QString@Base 2.0.0
 _ZN5Peony22DirectoryViewContainer15clearConditionsEv@Base 2.1.0
 _ZN5Peony22DirectoryViewContainer15viewTypeChangedEv@Base 2.0.0
 _ZN5Peony22DirectoryViewContainer16directoryChangedEv@Base 2.0.0
 _ZN5Peony22DirectoryViewContainer16selectionChangedEv@Base 2.0.0
 _ZN5Peony22DirectoryViewContainer16staticMetaObjectE@Base 2.0.0
 _ZN5Peony22DirectoryViewContainer17viewDoubleClickedERK7QString@Base 2.0.0
 _ZN5Peony22DirectoryViewContainer18addFilterConditionEiib@Base 2.1.0
 _ZN5Peony22DirectoryViewContainer18setSortFolderFirstEb@Base 2.0.0
 _ZN5Peony22DirectoryViewContainer19onViewDoubleClickedERK7QString@Base 2.0.0
 _ZN5Peony22DirectoryViewContainer19setZoomLevelRequestEi@Base 2.1.0
 _ZN5Peony22DirectoryViewContainer20getCurrentSelectionsEv@Base 2.0.0
 _ZN5Peony22DirectoryViewContainer21removeFilterConditionEiib@Base 2.1.0
 _ZN5Peony22DirectoryViewContainer24setFilterLabelConditionsE7QString@Base 2.1.0
 _ZN5Peony22DirectoryViewContainer26setUseDefaultNameSortOrderEb@Base 2.0.0
 _ZN5Peony22DirectoryViewContainer27updateWindowLocationRequestERK7QStringbb@Base 2.0.0
 _ZN5Peony22DirectoryViewContainer33updateStatusBarSliderStateRequestEv@Base 2.1.0
 _ZN5Peony22DirectoryViewContainer4cdUpEv@Base 2.0.0
 _ZN5Peony22DirectoryViewContainer6goBackEv@Base 2.0.0
 _ZN5Peony22DirectoryViewContainer7canCdUpEv@Base 2.0.0
 _ZN5Peony22DirectoryViewContainer7goToUriERK7QStringbb@Base 2.0.0
 _ZN5Peony22DirectoryViewContainer7refreshEv@Base 2.0.0
 _ZN5Peony22DirectoryViewContainer7tryJumpEi@Base 2.0.0
 _ZN5Peony22DirectoryViewContainer9canGoBackEv@Base 2.0.0
 _ZN5Peony22DirectoryViewContainer9goForwardEv@Base 2.0.0
 _ZN5Peony22DirectoryViewContainerC1EP7QWidget@Base 2.0.0
 _ZN5Peony22DirectoryViewContainerC2EP7QWidget@Base 2.0.0
 _ZN5Peony22DirectoryViewContainerD0Ev@Base 2.0.0
 _ZN5Peony22DirectoryViewContainerD1Ev@Base 2.0.0
 _ZN5Peony22DirectoryViewContainerD2Ev@Base 2.0.0
 _ZN5Peony23CreateTemplateOperation11qt_metacallEN11QMetaObject4CallEiPPv@Base 2.0.0
 _ZN5Peony23CreateTemplateOperation11qt_metacastEPKc@Base 2.0.0
 _ZN5Peony23CreateTemplateOperation15handleDuplicateERK7QString@Base 2.0.0
 _ZN5Peony23CreateTemplateOperation16getOperationInfoEv@Base 2.0.0
 _ZN5Peony23CreateTemplateOperation16staticMetaObjectE@Base 2.0.0
 _ZN5Peony23CreateTemplateOperation3runEv@Base 2.0.0
 _ZN5Peony23CreateTemplateOperationC1ERK7QStringNS0_4TypeES3_P7QObject@Base 2.0.0
 _ZN5Peony23CreateTemplateOperationC2ERK7QStringNS0_4TypeES3_P7QObject@Base 2.0.0
 _ZN5Peony23CreateTemplateOperationD0Ev@Base 2.0.0
 _ZN5Peony23CreateTemplateOperationD1Ev@Base 2.0.0
 _ZN5Peony23CreateTemplateOperationD2Ev@Base 2.0.0
 _ZN5Peony23DirectoryViewProxyIface11menuRequestERK6QPoint@Base 2.0.0
 _ZN5Peony23DirectoryViewProxyIface11openRequestERK11QStringListb@Base 2.0.0
 _ZN5Peony23DirectoryViewProxyIface11qt_metacallEN11QMetaObject4CallEiPPv@Base 2.0.0
 _ZN5Peony23DirectoryViewProxyIface11qt_metacastEPKc@Base 2.0.0
 _ZN5Peony23DirectoryViewProxyIface16staticMetaObjectE@Base 2.0.0
 _ZN5Peony23DirectoryViewProxyIface17viewDoubleClickedERK7QString@Base 2.0.0
 _ZN5Peony23DirectoryViewProxyIface20viewDirectoryChangedEv@Base 2.0.0
 _ZN5Peony23DirectoryViewProxyIface20viewSelectionChangedEv@Base 2.0.0
 _ZN5Peony23DirectoryViewProxyIface27updateWindowLocationRequestERK7QString@Base 2.0.0
 _ZN5Peony23PropertiesWindowPrivate11qt_metacallEN11QMetaObject4CallEiPPv@Base 2.0.0
 _ZN5Peony23PropertiesWindowPrivate11qt_metacastEPKc@Base 2.0.0
 _ZN5Peony23PropertiesWindowPrivate16staticMetaObjectE@Base 2.0.0
 _ZN5Peony23PropertiesWindowPrivateC1ERK11QStringListP7QWidget@Base 2.0.0
 _ZN5Peony23PropertiesWindowPrivateC2ERK11QStringListP7QWidget@Base 2.0.0
 _ZN5Peony23PropertiesWindowPrivateD0Ev@Base 2.0.0
 _ZN5Peony23PropertiesWindowPrivateD1Ev@Base 2.0.0
 _ZN5Peony23PropertiesWindowPrivateD2Ev@Base 2.0.0
 _ZN5Peony24CreateLinkInternalPlugin10pluginTypeEv@Base 2.0.0
 _ZN5Peony24CreateLinkInternalPlugin10testPluginEv@Base 2.0.0
 _ZN5Peony24CreateLinkInternalPlugin11descriptionEv@Base 2.0.0
 _ZN5Peony24CreateLinkInternalPlugin11menuActionsE6QFlagsINS_19MenuPluginInterface4TypeEERK7QStringRK11QStringList@Base 2.0.0
 _ZN5Peony24CreateLinkInternalPlugin11qt_metacallEN11QMetaObject4CallEiPPv@Base 2.0.0
 _ZN5Peony24CreateLinkInternalPlugin11qt_metacastEPKc@Base 2.0.0
 _ZN5Peony24CreateLinkInternalPlugin16staticMetaObjectE@Base 2.0.0
 _ZN5Peony24CreateLinkInternalPlugin4iconEv@Base 2.0.0
 _ZN5Peony24CreateLinkInternalPlugin4nameEv@Base 2.0.0
 _ZN5Peony24CreateLinkInternalPlugin8isEnableEv@Base 2.0.0
 _ZN5Peony24CreateLinkInternalPlugin9setEnableEb@Base 2.0.0
 _ZN5Peony24CreateLinkInternalPluginC1EP7QObject@Base 2.0.0
 _ZN5Peony24CreateLinkInternalPluginC2EP7QObject@Base 2.0.0
 _ZN5Peony24CreateLinkInternalPluginD0Ev@Base 2.0.0
 _ZN5Peony24CreateLinkInternalPluginD1Ev@Base 2.0.0
 _ZN5Peony24CreateLinkInternalPluginD2Ev@Base 2.0.0
 _ZN5Peony24FileOperationErrorDialog11handleErrorERK7QStringS3_RKSt10shared_ptrINS_13GErrorWrapperEEb@Base 2.0.0
 _ZN5Peony24FileOperationErrorDialog11qt_metacallEN11QMetaObject4CallEiPPv@Base 2.0.0
 _ZN5Peony24FileOperationErrorDialog11qt_metacastEPKc@Base 2.0.0
 _ZN5Peony24FileOperationErrorDialog16staticMetaObjectE@Base 2.0.0
 _ZN5Peony24FileOperationErrorDialogC1EP7QWidget@Base 2.0.0
 _ZN5Peony24FileOperationErrorDialogC2EP7QWidget@Base 2.0.0
 _ZN5Peony24FileOperationErrorDialogD0Ev@Base 2.0.0
 _ZN5Peony24FileOperationErrorDialogD1Ev@Base 2.0.0
 _ZN5Peony24FileOperationErrorDialogD2Ev@Base 2.0.0
 _ZN5Peony24FileOperationPreparePage11qt_metacallEN11QMetaObject4CallEiPPv@Base 2.0.0
 _ZN5Peony24FileOperationPreparePage11qt_metacastEPKc@Base 2.0.0
 _ZN5Peony24FileOperationPreparePage16staticMetaObjectE@Base 2.0.0
 _ZN5Peony24FileOperationPreparePage9cancelledEv@Base 2.0.0
 _ZN5Peony24FileOperationPreparePageC1EP7QWidget@Base 2.0.0
 _ZN5Peony24FileOperationPreparePageC2EP7QWidget@Base 2.0.0
 _ZN5Peony24FileOperationPreparePageD0Ev@Base 2.0.0
 _ZN5Peony24FileOperationPreparePageD1Ev@Base 2.0.0
 _ZN5Peony24FileOperationPreparePageD2Ev@Base 2.0.0
 _ZN5Peony25DefaultPreviewPageFactory10pluginTypeEv@Base 2.0.0
 _ZN5Peony25DefaultPreviewPageFactory11descriptionEv@Base 2.0.0
 _ZN5Peony25DefaultPreviewPageFactory11getInstanceEv@Base 2.0.0
 _ZN5Peony25DefaultPreviewPageFactory11qt_metacallEN11QMetaObject4CallEiPPv@Base 2.0.0
 _ZN5Peony25DefaultPreviewPageFactory11qt_metacastEPKc@Base 2.0.0
 _ZN5Peony25DefaultPreviewPageFactory16staticMetaObjectE@Base 2.0.0
 _ZN5Peony25DefaultPreviewPageFactory17createPreviewPageEv@Base 2.0.0
 _ZN5Peony25DefaultPreviewPageFactory4iconEv@Base 2.0.0
 _ZN5Peony25DefaultPreviewPageFactory4nameEv@Base 2.0.0
 _ZN5Peony25DefaultPreviewPageFactory8isEnableEv@Base 2.0.0
 _ZN5Peony25DefaultPreviewPageFactory9setEnableEb@Base 2.0.0
 _ZN5Peony25DefaultPreviewPageFactoryC1EP7QObject@Base 2.0.0
 _ZN5Peony25DefaultPreviewPageFactoryC2EP7QObject@Base 2.0.0
 _ZN5Peony25DefaultPreviewPageFactoryD0Ev@Base 2.0.0
 _ZN5Peony25DefaultPreviewPageFactoryD1Ev@Base 2.0.0
 _ZN5Peony25DefaultPreviewPageFactoryD2Ev@Base 2.0.0
 _ZN5Peony25FileOperationErrorHandlerD0Ev@Base 2.0.0
 _ZN5Peony25FileOperationErrorHandlerD1Ev@Base 2.0.0
 _ZN5Peony25FileOperationErrorHandlerD2Ev@Base 2.0.0
 _ZN5Peony25FileOperationProgressPage11qt_metacallEN11QMetaObject4CallEiPPv@Base 2.0.0
 _ZN5Peony25FileOperationProgressPage11qt_metacastEPKc@Base 2.0.0
 _ZN5Peony25FileOperationProgressPage16staticMetaObjectE@Base 2.0.0
 _ZN5Peony25FileOperationProgressPage9cancelledEv@Base 2.0.0
 _ZN5Peony25FileOperationProgressPageC1EP7QWidget@Base 2.0.0
 _ZN5Peony25FileOperationProgressPageC2EP7QWidget@Base 2.0.0
 _ZN5Peony25FileOperationProgressPageD0Ev@Base 2.0.0
 _ZN5Peony25FileOperationProgressPageD1Ev@Base 2.0.0
 _ZN5Peony25FileOperationProgressPageD2Ev@Base 2.0.0
 _ZN5Peony25FileOperationRollbackPage11qt_metacallEN11QMetaObject4CallEiPPv@Base 2.0.0
 _ZN5Peony25FileOperationRollbackPage11qt_metacastEPKc@Base 2.0.0
 _ZN5Peony25FileOperationRollbackPage16staticMetaObjectE@Base 2.0.0
 _ZN5Peony25FileOperationRollbackPageC1EP7QWidget@Base 2.0.0
 _ZN5Peony25FileOperationRollbackPageC2EP7QWidget@Base 2.0.0
 _ZN5Peony25FileOperationRollbackPageD0Ev@Base 2.0.0
 _ZN5Peony25FileOperationRollbackPageD1Ev@Base 2.0.0
 _ZN5Peony25FileOperationRollbackPageD2Ev@Base 2.0.0
 _ZN5Peony25PermissionsPropertiesPage11qt_metacallEN11QMetaObject4CallEiPPv@Base 2.0.0
 _ZN5Peony25PermissionsPropertiesPage11qt_metacastEPKc@Base 2.0.0
 _ZN5Peony25PermissionsPropertiesPage15checkBoxChangedEiib@Base 2.0.0
 _ZN5Peony25PermissionsPropertiesPage16changePermissionEiib@Base 2.0.0
 _ZN5Peony25PermissionsPropertiesPage16staticMetaObjectE@Base 2.0.0
 _ZN5Peony25PermissionsPropertiesPage21queryPermissionsAsyncERK7QStringS3_@Base 2.0.0
 _ZN5Peony25PermissionsPropertiesPage30async_query_permisson_callbackEP8_GObjectP13_GAsyncResultPS0_@Base 2.0.0
 _ZN5Peony25PermissionsPropertiesPageC1ERK11QStringListP7QWidget@Base 2.0.0
 _ZN5Peony25PermissionsPropertiesPageC2ERK11QStringListP7QWidget@Base 2.0.0
 _ZN5Peony25PermissionsPropertiesPageD0Ev@Base 2.0.0
 _ZN5Peony25PermissionsPropertiesPageD1Ev@Base 2.0.0
 _ZN5Peony25PermissionsPropertiesPageD2Ev@Base 2.0.0
 _ZN5Peony25PreviewPageFactoryManager11getInstanceEv@Base 2.0.0
 _ZN5Peony25PreviewPageFactoryManager11qt_metacallEN11QMetaObject4CallEiPPv@Base 2.0.0
 _ZN5Peony25PreviewPageFactoryManager11qt_metacastEPKc@Base 2.0.0
 _ZN5Peony25PreviewPageFactoryManager14getPluginNamesEv@Base 2.0.0
 _ZN5Peony25PreviewPageFactoryManager15registerFactoryERK7QStringPNS_22PreviewPagePluginIfaceE@Base 2.0.0
 _ZN5Peony25PreviewPageFactoryManager16staticMetaObjectE@Base 2.0.0
 _ZN5Peony25PreviewPageFactoryManager20getLastPreviewPageIdEv@Base 2.0.0
 _ZN5Peony25PreviewPageFactoryManager9getPluginERK7QString@Base 2.0.0
 _ZN5Peony25PreviewPageFactoryManagerC1EP7QObject@Base 2.0.0
 _ZN5Peony25PreviewPageFactoryManagerC2EP7QObject@Base 2.0.0
 _ZN5Peony25PreviewPageFactoryManagerD0Ev@Base 2.0.0
 _ZN5Peony25PreviewPageFactoryManagerD1Ev@Base 2.0.0
 _ZN5Peony25PreviewPageFactoryManagerD2Ev@Base 2.0.0
 _ZN5Peony26BasicPropertiesPageFactory10pluginTypeEv@Base 2.0.0
 _ZN5Peony26BasicPropertiesPageFactory11descriptionEv@Base 2.0.0
 _ZN5Peony26BasicPropertiesPageFactory11getInstanceEv@Base 2.0.0
 _ZN5Peony26BasicPropertiesPageFactory11qt_metacallEN11QMetaObject4CallEiPPv@Base 2.0.0
 _ZN5Peony26BasicPropertiesPageFactory11qt_metacastEPKc@Base 2.0.0
 _ZN5Peony26BasicPropertiesPageFactory11supportUrisERK11QStringList@Base 2.0.0
 _ZN5Peony26BasicPropertiesPageFactory12closeFactoryEv@Base 2.0.0
 _ZN5Peony26BasicPropertiesPageFactory13createTabPageERK11QStringList@Base 2.0.0
 _ZN5Peony26BasicPropertiesPageFactory16staticMetaObjectE@Base 2.0.0
 _ZN5Peony26BasicPropertiesPageFactory4iconEv@Base 2.0.0
 _ZN5Peony26BasicPropertiesPageFactory4nameEv@Base 2.0.0
 _ZN5Peony26BasicPropertiesPageFactory8isEnableEv@Base 2.0.0
 _ZN5Peony26BasicPropertiesPageFactory8tabOrderEv@Base 2.0.0
 _ZN5Peony26BasicPropertiesPageFactory9setEnableEb@Base 2.0.0
 _ZN5Peony26BasicPropertiesPageFactoryC1EP7QObject@Base 2.0.0
 _ZN5Peony26BasicPropertiesPageFactoryC2EP7QObject@Base 2.0.0
 _ZN5Peony26BasicPropertiesPageFactoryD0Ev@Base 2.0.0
 _ZN5Peony26BasicPropertiesPageFactoryD1Ev@Base 2.0.0
 _ZN5Peony26BasicPropertiesPageFactoryD2Ev@Base 2.0.0
#MISSING: 2.1.0# _ZN5Peony26ViewFactorySortFilterModel11qt_metacallEN11QMetaObject4CallEiPPv@Base 2.0.0
#MISSING: 2.1.0# _ZN5Peony26ViewFactorySortFilterModel11qt_metacastEPKc@Base 2.0.0
#MISSING: 2.1.0# _ZN5Peony26ViewFactorySortFilterModel14iconFromViewIdERK7QString@Base 2.0.0
#MISSING: 2.1.0# _ZN5Peony26ViewFactorySortFilterModel14supportViewIdsEv@Base 2.0.0
#MISSING: 2.1.0# _ZN5Peony26ViewFactorySortFilterModel15setDirectoryUriERK7QString@Base 2.0.0
#MISSING: 2.1.0# _ZN5Peony26ViewFactorySortFilterModel16staticMetaObjectE@Base 2.0.0
#MISSING: 2.1.0# _ZN5Peony26ViewFactorySortFilterModel18getIndexFromViewIdERK7QString@Base 2.0.0
#MISSING: 2.1.0# _ZN5Peony26ViewFactorySortFilterModel24getHighestPriorityViewIdEi@Base 2.0.0
#MISSING: 2.1.0# _ZN5Peony26ViewFactorySortFilterModelC1EP7QObject@Base 2.0.0
#MISSING: 2.1.0# _ZN5Peony26ViewFactorySortFilterModelC2EP7QObject@Base 2.0.0
#MISSING: 2.1.0# _ZN5Peony26ViewFactorySortFilterModelD0Ev@Base 2.0.0
#MISSING: 2.1.0# _ZN5Peony26ViewFactorySortFilterModelD1Ev@Base 2.0.0
#MISSING: 2.1.0# _ZN5Peony26ViewFactorySortFilterModelD2Ev@Base 2.0.0
#MISSING: 2.1.0# _ZN5Peony27DirectoryViewFactoryManager10getFactoryERK7QString@Base 2.0.0
#MISSING: 2.1.0# _ZN5Peony27DirectoryViewFactoryManager11getInstanceEv@Base 2.0.0
#MISSING: 2.1.0# _ZN5Peony27DirectoryViewFactoryManager11qt_metacallEN11QMetaObject4CallEiPPv@Base 2.0.0
#MISSING: 2.1.0# _ZN5Peony27DirectoryViewFactoryManager11qt_metacastEPKc@Base 2.0.0
#MISSING: 2.1.0# _ZN5Peony27DirectoryViewFactoryManager15getFactoryNamesEv@Base 2.0.0
#MISSING: 2.1.0# _ZN5Peony27DirectoryViewFactoryManager15registerFactoryERK7QStringPNS_24DirectoryViewPluginIfaceE@Base 2.0.0
#MISSING: 2.1.0# _ZN5Peony27DirectoryViewFactoryManager16getDefaultViewIdEv@Base 2.0.0
#MISSING: 2.1.0# _ZN5Peony27DirectoryViewFactoryManager16setDefaultViewIdERK7QString@Base 2.0.0
#MISSING: 2.1.0# _ZN5Peony27DirectoryViewFactoryManager16staticMetaObjectE@Base 2.0.0
#MISSING: 2.1.0# _ZN5Peony27DirectoryViewFactoryManager21saveDefaultViewOptionEv@Base 2.0.0
#MISSING: 2.1.0# _ZN5Peony27DirectoryViewFactoryManagerC1EP7QObject@Base 2.0.0
#MISSING: 2.1.0# _ZN5Peony27DirectoryViewFactoryManagerC2EP7QObject@Base 2.0.0
#MISSING: 2.1.0# _ZN5Peony27DirectoryViewFactoryManagerD0Ev@Base 2.0.0
#MISSING: 2.1.0# _ZN5Peony27DirectoryViewFactoryManagerD1Ev@Base 2.0.0
#MISSING: 2.1.0# _ZN5Peony27DirectoryViewFactoryManagerD2Ev@Base 2.0.0
 _ZN5Peony27FileLabelInternalMenuPlugin10pluginTypeEv@Base 2.1.0
 _ZN5Peony27FileLabelInternalMenuPlugin10testPluginEv@Base 2.1.0
 _ZN5Peony27FileLabelInternalMenuPlugin11descriptionEv@Base 2.1.0
 _ZN5Peony27FileLabelInternalMenuPlugin11menuActionsE6QFlagsINS_19MenuPluginInterface4TypeEERK7QStringRK11QStringList@Base 2.1.0
 _ZN5Peony27FileLabelInternalMenuPlugin11qt_metacallEN11QMetaObject4CallEiPPv@Base 2.1.0
 _ZN5Peony27FileLabelInternalMenuPlugin11qt_metacastEPKc@Base 2.1.0
 _ZN5Peony27FileLabelInternalMenuPlugin16staticMetaObjectE@Base 2.1.0
 _ZN5Peony27FileLabelInternalMenuPlugin4iconEv@Base 2.1.0
 _ZN5Peony27FileLabelInternalMenuPlugin4nameEv@Base 2.1.0
 _ZN5Peony27FileLabelInternalMenuPlugin8isEnableEv@Base 2.1.0
 _ZN5Peony27FileLabelInternalMenuPlugin9setEnableEb@Base 2.1.0
 _ZN5Peony27FileLabelInternalMenuPluginC1EP7QObject@Base 2.1.0
 _ZN5Peony27FileLabelInternalMenuPluginC2EP7QObject@Base 2.1.0
 _ZN5Peony27FileLabelInternalMenuPluginD0Ev@Base 2.1.0
 _ZN5Peony27FileLabelInternalMenuPluginD1Ev@Base 2.1.0
 _ZN5Peony27FileLabelInternalMenuPluginD2Ev@Base 2.1.0
 _ZN5Peony27FileOperationProgressWizard10closeEventEP11QCloseEvent@Base 2.0.0
 _ZN5Peony27FileOperationProgressWizard11onStartSyncEv@Base 2.2.0
 _ZN5Peony27FileOperationProgressWizard11qt_metacallEN11QMetaObject4CallEiPPv@Base 2.0.0
 _ZN5Peony27FileOperationProgressWizard11qt_metacastEPKc@Base 2.0.0
 _ZN5Peony27FileOperationProgressWizard14updateProgressERK7QStringS3_yy@Base 2.0.0
 _ZN5Peony27FileOperationProgressWizard16onFileRollbackedERK7QStringS3_@Base 2.0.0
 _ZN5Peony27FileOperationProgressWizard16staticMetaObjectE@Base 2.0.0
 _ZN5Peony27FileOperationProgressWizard17onElementClearOneERK7QString@Base 2.0.0
 _ZN5Peony27FileOperationProgressWizard17onElementFoundAllEv@Base 2.0.0
 _ZN5Peony27FileOperationProgressWizard17onElementFoundOneERK7QStringRKx@Base 2.0.0
 _ZN5Peony27FileOperationProgressWizard20switchToPreparedPageEv@Base 2.0.0
 _ZN5Peony27FileOperationProgressWizard20switchToProgressPageEv@Base 2.0.0
 _ZN5Peony27FileOperationProgressWizard20switchToRollbackPageEv@Base 2.0.0
 _ZN5Peony27FileOperationProgressWizard25switchToAfterProgressPageEv@Base 2.0.0
 _ZN5Peony27FileOperationProgressWizard28onFileOperationProgressedAllEv@Base 2.0.0
 _ZN5Peony27FileOperationProgressWizard28onFileOperationProgressedOneERK7QStringS3_RKx@Base 2.0.0
 _ZN5Peony27FileOperationProgressWizard9cancelledEv@Base 2.0.0
 _ZN5Peony27FileOperationProgressWizard9delayShowEv@Base 2.0.0
 _ZN5Peony27FileOperationProgressWizardC1EP7QWidget@Base 2.0.0
 _ZN5Peony27FileOperationProgressWizardC2EP7QWidget@Base 2.0.0
 _ZN5Peony27FileOperationProgressWizardD0Ev@Base 2.0.0
 _ZN5Peony27FileOperationProgressWizardD1Ev@Base 2.0.0
 _ZN5Peony27FileOperationProgressWizardD2Ev@Base 2.0.0
 _ZN5Peony27SideBarProxyFilterSortModel11qt_metacallEN11QMetaObject4CallEiPPv@Base 2.0.0
 _ZN5Peony27SideBarProxyFilterSortModel11qt_metacastEPKc@Base 2.0.0
 _ZN5Peony27SideBarProxyFilterSortModel13itemFromIndexERK11QModelIndex@Base 2.0.0
 _ZN5Peony27SideBarProxyFilterSortModel16staticMetaObjectE@Base 2.0.0
 _ZN5Peony27SideBarProxyFilterSortModelC1EP7QObject@Base 2.0.0
 _ZN5Peony27SideBarProxyFilterSortModelC2EP7QObject@Base 2.0.0
 _ZN5Peony27SideBarProxyFilterSortModelD0Ev@Base 2.0.0
 _ZN5Peony27SideBarProxyFilterSortModelD1Ev@Base 2.0.0
 _ZN5Peony27SideBarProxyFilterSortModelD2Ev@Base 2.0.0
 _ZN5Peony27ToolBarExtensionActionIface11qt_metacallEN11QMetaObject4CallEiPPv@Base 2.0.0
 _ZN5Peony27ToolBarExtensionActionIface11qt_metacastEPKc@Base 2.0.0
 _ZN5Peony27ToolBarExtensionActionIface16staticMetaObjectE@Base 2.0.0
 _ZN5Peony27ViewFactorySortFilterModel211qt_metacallEN11QMetaObject4CallEiPPv@Base 2.0.0
 _ZN5Peony27ViewFactorySortFilterModel211qt_metacastEPKc@Base 2.0.0
 _ZN5Peony27ViewFactorySortFilterModel214iconFromViewIdERK7QString@Base 2.0.0
 _ZN5Peony27ViewFactorySortFilterModel214supportViewIdsEv@Base 2.0.0
 _ZN5Peony27ViewFactorySortFilterModel215setDirectoryUriERK7QString@Base 2.0.0
 _ZN5Peony27ViewFactorySortFilterModel216staticMetaObjectE@Base 2.0.0
 _ZN5Peony27ViewFactorySortFilterModel218getIndexFromViewIdERK7QString@Base 2.0.0
 _ZN5Peony27ViewFactorySortFilterModel224getHighestPriorityViewIdEi@Base 2.0.0
 _ZN5Peony27ViewFactorySortFilterModel224getViewDisplayNameFromIdERK7QString@Base 2.1.0
 _ZN5Peony27ViewFactorySortFilterModel2C1EP7QObject@Base 2.0.0
 _ZN5Peony27ViewFactorySortFilterModel2C2EP7QObject@Base 2.0.0
 _ZN5Peony27ViewFactorySortFilterModel2D0Ev@Base 2.0.0
 _ZN5Peony27ViewFactorySortFilterModel2D1Ev@Base 2.0.0
 _ZN5Peony27ViewFactorySortFilterModel2D2Ev@Base 2.0.0
 _ZN5Peony28DirectoryViewFactoryManager210getFactoryERK7QString@Base 2.0.0
 _ZN5Peony28DirectoryViewFactoryManager211getInstanceEv@Base 2.0.0
 _ZN5Peony28DirectoryViewFactoryManager211qt_metacallEN11QMetaObject4CallEiPPv@Base 2.0.0
 _ZN5Peony28DirectoryViewFactoryManager211qt_metacastEPKc@Base 2.0.0
 _ZN5Peony28DirectoryViewFactoryManager215getFactoryNamesEv@Base 2.0.0
 _ZN5Peony28DirectoryViewFactoryManager215registerFactoryERK7QStringPNS_25DirectoryViewPluginIface2E@Base 2.0.0
 _ZN5Peony28DirectoryViewFactoryManager216getDefaultViewIdERK7QString@Base 2.1.0
 _ZN5Peony28DirectoryViewFactoryManager216getDefaultViewIdEiRK7QString@Base 2.1.0
#MISSING: 2.1.0# _ZN5Peony28DirectoryViewFactoryManager216getDefaultViewIdEv@Base 2.0.0
 _ZN5Peony28DirectoryViewFactoryManager216setDefaultViewIdERK7QString@Base 2.0.0
 _ZN5Peony28DirectoryViewFactoryManager216staticMetaObjectE@Base 2.0.0
 _ZN5Peony28DirectoryViewFactoryManager221saveDefaultViewOptionEv@Base 2.0.0
 _ZN5Peony28DirectoryViewFactoryManager2C1EP7QObject@Base 2.0.0
 _ZN5Peony28DirectoryViewFactoryManager2C2EP7QObject@Base 2.0.0
 _ZN5Peony28DirectoryViewFactoryManager2D0Ev@Base 2.0.0
 _ZN5Peony28DirectoryViewFactoryManager2D1Ev@Base 2.0.0
 _ZN5Peony28DirectoryViewFactoryManager2D2Ev@Base 2.0.0
 _ZN5Peony28FileItemProxyFilterSortModel11qt_metacallEN11QMetaObject4CallEiPPv@Base 2.0.0
 _ZN5Peony28FileItemProxyFilterSortModel11qt_metacastEPKc@Base 2.0.0
 _ZN5Peony28FileItemProxyFilterSortModel12indexFromUriERK7QString@Base 2.0.0
 _ZN5Peony28FileItemProxyFilterSortModel13itemFromIndexERK11QModelIndex@Base 2.0.0
 _ZN5Peony28FileItemProxyFilterSortModel13setShowHiddenEb@Base 2.0.0
 _ZN5Peony28FileItemProxyFilterSortModel14getAllFileUrisEv@Base 2.0.0
 _ZN5Peony28FileItemProxyFilterSortModel14getSourceIndexERK11QModelIndex@Base 2.0.0
 _ZN5Peony28FileItemProxyFilterSortModel14setFolderFirstEb@Base 2.0.0
 _ZN5Peony28FileItemProxyFilterSortModel14setSourceModelEP18QAbstractItemModel@Base 2.0.0
 _ZN5Peony28FileItemProxyFilterSortModel15clearConditionsEv@Base 2.1.0
 _ZN5Peony28FileItemProxyFilterSortModel16setLabelBlurNameE7QStringb@Base 2.1.0
 _ZN5Peony28FileItemProxyFilterSortModel16staticMetaObjectE@Base 2.0.0
 _ZN5Peony28FileItemProxyFilterSortModel17getAllFileIndexesEv@Base 2.0.0
 _ZN5Peony28FileItemProxyFilterSortModel18addFilterConditionEiib@Base 2.1.0
 _ZN5Peony28FileItemProxyFilterSortModel19setFilterConditionsEiii@Base 2.0.0
 _ZN5Peony28FileItemProxyFilterSortModel21removeFilterConditionEiib@Base 2.1.0
 _ZN5Peony28FileItemProxyFilterSortModel24setFilterLabelConditionsE7QString6QColor@Base 2.1.0
 _ZN5Peony28FileItemProxyFilterSortModel25setMutipleLabelConditionsE11QStringList5QListI6QColorE@Base 2.1.0
 _ZN5Peony28FileItemProxyFilterSortModel26setUseDefaultNameSortOrderEb@Base 2.0.0
 _ZN5Peony28FileItemProxyFilterSortModel6updateEv@Base 2.0.0
 _ZN5Peony28FileItemProxyFilterSortModelC1EP7QObject@Base 2.0.0
 _ZN5Peony28FileItemProxyFilterSortModelC2EP7QObject@Base 2.0.0
 _ZN5Peony28FileItemProxyFilterSortModelD0Ev@Base 2.0.0
 _ZN5Peony28FileItemProxyFilterSortModelD1Ev@Base 2.0.0
 _ZN5Peony28FileItemProxyFilterSortModelD2Ev@Base 2.0.0
 _ZN5Peony28RecentAndTrashPropertiesPage11qt_metacallEN11QMetaObject4CallEiPPv@Base 2.0.0
 _ZN5Peony28RecentAndTrashPropertiesPage11qt_metacastEPKc@Base 2.0.0
 _ZN5Peony28RecentAndTrashPropertiesPage12addSeparatorEv@Base 2.0.0
 _ZN5Peony28RecentAndTrashPropertiesPage16staticMetaObjectE@Base 2.0.0
 _ZN5Peony28RecentAndTrashPropertiesPageC1ERK11QStringListP7QWidget@Base 2.0.0
 _ZN5Peony28RecentAndTrashPropertiesPageC2ERK11QStringListP7QWidget@Base 2.0.0
 _ZN5Peony28RecentAndTrashPropertiesPageD0Ev@Base 2.0.0
 _ZN5Peony28RecentAndTrashPropertiesPageD1Ev@Base 2.0.0
 _ZN5Peony28RecentAndTrashPropertiesPageD2Ev@Base 2.0.0
 _ZN5Peony29ComputerPropertiesPageFactory10pluginTypeEv@Base 2.0.0
 _ZN5Peony29ComputerPropertiesPageFactory11descriptionEv@Base 2.0.0
 _ZN5Peony29ComputerPropertiesPageFactory11getInstanceEv@Base 2.0.0
 _ZN5Peony29ComputerPropertiesPageFactory11qt_metacallEN11QMetaObject4CallEiPPv@Base 2.0.0
 _ZN5Peony29ComputerPropertiesPageFactory11qt_metacastEPKc@Base 2.0.0
 _ZN5Peony29ComputerPropertiesPageFactory11supportUrisERK11QStringList@Base 2.0.0
 _ZN5Peony29ComputerPropertiesPageFactory12closeFactoryEv@Base 2.0.0
 _ZN5Peony29ComputerPropertiesPageFactory13createTabPageERK11QStringList@Base 2.0.0
 _ZN5Peony29ComputerPropertiesPageFactory16staticMetaObjectE@Base 2.0.0
 _ZN5Peony29ComputerPropertiesPageFactory4iconEv@Base 2.0.0
 _ZN5Peony29ComputerPropertiesPageFactory4nameEv@Base 2.0.0
 _ZN5Peony29ComputerPropertiesPageFactory8isEnableEv@Base 2.0.0
 _ZN5Peony29ComputerPropertiesPageFactory8tabOrderEv@Base 2.0.0
 _ZN5Peony29ComputerPropertiesPageFactory9setEnableEb@Base 2.0.0
 _ZN5Peony29ComputerPropertiesPageFactoryC1EP7QObject@Base 2.0.0
 _ZN5Peony29ComputerPropertiesPageFactoryC2EP7QObject@Base 2.0.0
 _ZN5Peony29ComputerPropertiesPageFactoryD0Ev@Base 2.0.0
 _ZN5Peony29ComputerPropertiesPageFactoryD1Ev@Base 2.0.0
 _ZN5Peony29ComputerPropertiesPageFactoryD2Ev@Base 2.0.0
 _ZN5Peony29PropertiesWindowPluginManager10getFactoryERK7QString@Base 2.0.0
 _ZN5Peony29PropertiesWindowPluginManager11getInstanceEv@Base 2.0.0
 _ZN5Peony29PropertiesWindowPluginManager11qt_metacallEN11QMetaObject4CallEiPPv@Base 2.0.0
 _ZN5Peony29PropertiesWindowPluginManager11qt_metacastEPKc@Base 2.0.0
 _ZN5Peony29PropertiesWindowPluginManager15getFactoryNamesEv@Base 2.0.0
 _ZN5Peony29PropertiesWindowPluginManager15registerFactoryEPNS_34PropertiesWindowTabPagePluginIfaceE@Base 2.0.0
 _ZN5Peony29PropertiesWindowPluginManager16staticMetaObjectE@Base 2.0.0
 _ZN5Peony29PropertiesWindowPluginManager7releaseEv@Base 2.0.0
 _ZN5Peony29PropertiesWindowPluginManagerC1EP7QObject@Base 2.0.0
 _ZN5Peony29PropertiesWindowPluginManagerC2EP7QObject@Base 2.0.0
 _ZN5Peony29PropertiesWindowPluginManagerD0Ev@Base 2.0.0
 _ZN5Peony29PropertiesWindowPluginManagerD1Ev@Base 2.0.0
 _ZN5Peony29PropertiesWindowPluginManagerD2Ev@Base 2.0.0
 _ZN5Peony30FileOperationAfterProgressPage11qt_metacallEN11QMetaObject4CallEiPPv@Base 2.0.0
 _ZN5Peony30FileOperationAfterProgressPage11qt_metacastEPKc@Base 2.0.0
 _ZN5Peony30FileOperationAfterProgressPage16staticMetaObjectE@Base 2.0.0
 _ZN5Peony30FileOperationAfterProgressPageC1EP7QWidget@Base 2.0.0
 _ZN5Peony30FileOperationAfterProgressPageC2EP7QWidget@Base 2.0.0
 _ZN5Peony30FileOperationAfterProgressPageD0Ev@Base 2.0.0
 _ZN5Peony30FileOperationAfterProgressPageD1Ev@Base 2.0.0
 _ZN5Peony30FileOperationAfterProgressPageD2Ev@Base 2.0.0
 _ZN5Peony32PermissionsPropertiesPageFactory10pluginTypeEv@Base 2.0.0
 _ZN5Peony32PermissionsPropertiesPageFactory11descriptionEv@Base 2.0.0
 _ZN5Peony32PermissionsPropertiesPageFactory11getInstanceEv@Base 2.0.0
 _ZN5Peony32PermissionsPropertiesPageFactory11qt_metacallEN11QMetaObject4CallEiPPv@Base 2.0.0
 _ZN5Peony32PermissionsPropertiesPageFactory11qt_metacastEPKc@Base 2.0.0
 _ZN5Peony32PermissionsPropertiesPageFactory11supportUrisERK11QStringList@Base 2.0.0
 _ZN5Peony32PermissionsPropertiesPageFactory12closeFactoryEv@Base 2.0.0
 _ZN5Peony32PermissionsPropertiesPageFactory13createTabPageERK11QStringList@Base 2.0.0
 _ZN5Peony32PermissionsPropertiesPageFactory16staticMetaObjectE@Base 2.0.0
 _ZN5Peony32PermissionsPropertiesPageFactory4iconEv@Base 2.0.0
 _ZN5Peony32PermissionsPropertiesPageFactory4nameEv@Base 2.0.0
 _ZN5Peony32PermissionsPropertiesPageFactory8isEnableEv@Base 2.0.0
 _ZN5Peony32PermissionsPropertiesPageFactory8tabOrderEv@Base 2.0.0
 _ZN5Peony32PermissionsPropertiesPageFactory9setEnableEb@Base 2.0.0
 _ZN5Peony32PermissionsPropertiesPageFactoryC1EP7QObject@Base 2.0.0
 _ZN5Peony32PermissionsPropertiesPageFactoryC2EP7QObject@Base 2.0.0
 _ZN5Peony32PermissionsPropertiesPageFactoryD0Ev@Base 2.0.0
 _ZN5Peony32PermissionsPropertiesPageFactoryD1Ev@Base 2.0.0
 _ZN5Peony32PermissionsPropertiesPageFactoryD2Ev@Base 2.0.0
 _ZN5Peony35RecentAndTrashPropertiesPageFactory10pluginTypeEv@Base 2.0.0
 _ZN5Peony35RecentAndTrashPropertiesPageFactory11descriptionEv@Base 2.0.0
 _ZN5Peony35RecentAndTrashPropertiesPageFactory11getInstanceEv@Base 2.0.0
 _ZN5Peony35RecentAndTrashPropertiesPageFactory11qt_metacallEN11QMetaObject4CallEiPPv@Base 2.0.0
 _ZN5Peony35RecentAndTrashPropertiesPageFactory11qt_metacastEPKc@Base 2.0.0
 _ZN5Peony35RecentAndTrashPropertiesPageFactory11supportUrisERK11QStringList@Base 2.0.0
 _ZN5Peony35RecentAndTrashPropertiesPageFactory12closeFactoryEv@Base 2.0.0
 _ZN5Peony35RecentAndTrashPropertiesPageFactory13createTabPageERK11QStringList@Base 2.0.0
 _ZN5Peony35RecentAndTrashPropertiesPageFactory16staticMetaObjectE@Base 2.0.0
 _ZN5Peony35RecentAndTrashPropertiesPageFactory4iconEv@Base 2.0.0
 _ZN5Peony35RecentAndTrashPropertiesPageFactory4nameEv@Base 2.0.0
 _ZN5Peony35RecentAndTrashPropertiesPageFactory8isEnableEv@Base 2.0.0
 _ZN5Peony35RecentAndTrashPropertiesPageFactory8tabOrderEv@Base 2.0.0
 _ZN5Peony35RecentAndTrashPropertiesPageFactory9setEnableEb@Base 2.0.0
 _ZN5Peony35RecentAndTrashPropertiesPageFactoryC1EP7QObject@Base 2.0.0
 _ZN5Peony35RecentAndTrashPropertiesPageFactoryC2EP7QObject@Base 2.0.0
 _ZN5Peony35RecentAndTrashPropertiesPageFactoryD0Ev@Base 2.0.0
 _ZN5Peony35RecentAndTrashPropertiesPageFactoryD1Ev@Base 2.0.0
 _ZN5Peony35RecentAndTrashPropertiesPageFactoryD2Ev@Base 2.0.0
 _ZN5Peony7SideBar10paintEventEP11QPaintEvent@Base 2.0.0
 _ZN5Peony7SideBar11qt_metacallEN11QMetaObject4CallEiPPv@Base 2.0.0
 _ZN5Peony7SideBar11qt_metacastEPKc@Base 2.0.0
 _ZN5Peony7SideBar13dragMoveEventEP14QDragMoveEvent@Base 2.0.0
 _ZN5Peony7SideBar14dragEnterEventEP15QDragEnterEvent@Base 2.0.0
 _ZN5Peony7SideBar16staticMetaObjectE@Base 2.0.0
 _ZN5Peony7SideBar27updateWindowLocationRequestERK7QStringbb@Base 2.0.0
 _ZN5Peony7SideBarC1EP7QWidget@Base 2.0.0
 _ZN5Peony7SideBarC2EP7QWidget@Base 2.0.0
 _ZN5Peony7SideBarD0Ev@Base 2.0.0
 _ZN5Peony7SideBarD1Ev@Base 2.0.0
 _ZN5Peony7SideBarD2Ev@Base 2.0.0
 _ZN5Peony7TabPage11menuRequestERK6QPoint@Base 2.0.0
 _ZN5Peony7TabPage11qt_metacallEN11QMetaObject4CallEiPPv@Base 2.0.0
 _ZN5Peony7TabPage11qt_metacastEPKc@Base 2.0.0
 _ZN5Peony7TabPage13getActivePageEv@Base 2.0.0
 _ZN5Peony7TabPage15rebindContainerEv@Base 2.0.0
 _ZN5Peony7TabPage15viewTypeChangedEv@Base 2.0.0
 _ZN5Peony7TabPage16staticMetaObjectE@Base 2.0.0
 _ZN5Peony7TabPage18stopLocationChangeEv@Base 2.0.0
 _ZN5Peony7TabPage21refreshCurrentTabTextEv@Base 2.0.0
 _ZN5Peony7TabPage22currentLocationChangedEv@Base 2.0.0
 _ZN5Peony7TabPage23currentSelectionChangedEv@Base 2.0.0
 _ZN5Peony7TabPage24currentActiveViewChangedEv@Base 2.0.0
 _ZN5Peony7TabPage27updateWindowLocationRequestERK7QStringbb@Base 2.0.0
 _ZN5Peony7TabPage7addPageERK7QString@Base 2.0.0
 _ZN5Peony7TabPageC1EP7QWidget@Base 2.0.0
 _ZN5Peony7TabPageC2EP7QWidget@Base 2.0.0
 _ZN5Peony7TabPageD0Ev@Base 2.0.0
 _ZN5Peony7TabPageD1Ev@Base 2.0.0
 _ZN5Peony7TabPageD2Ev@Base 2.0.0
 _ZN5Peony7ToolBar11qt_metacallEN11QMetaObject4CallEiPPv@Base 2.0.0
 _ZN5Peony7ToolBar11qt_metacastEPKc@Base 2.0.0
 _ZN5Peony7ToolBar12updateStatesEv@Base 2.0.0
 _ZN5Peony7ToolBar13optionRequestERKNS0_11RequestTypeE@Base 2.0.0
 _ZN5Peony7ToolBar14updateLocationERK7QString@Base 2.0.0
 _ZN5Peony7ToolBar16staticMetaObjectE@Base 2.0.0
 _ZN5Peony7ToolBar21updateLocationRequestERK7QString@Base 2.0.0
 _ZN5Peony7ToolBar4initEv@Base 2.0.0
 _ZN5Peony7ToolBarC1EPNS_8FMWindowEP7QWidget@Base 2.0.0
 _ZN5Peony7ToolBarC2EPNS_8FMWindowEP7QWidget@Base 2.0.0
 _ZN5Peony7ToolBarD0Ev@Base 2.0.0
 _ZN5Peony7ToolBarD1Ev@Base 2.0.0
 _ZN5Peony7ToolBarD2Ev@Base 2.0.0
 _ZN5Peony8FMWindow10addNewTabsERK11QStringList@Base 2.0.0
 _ZN5Peony8FMWindow10getFactoryEv@Base 2.1.0
 _ZN5Peony8FMWindow11clearRecordEv@Base 2.0.0
 _ZN5Peony8FMWindow11qt_metacallEN11QMetaObject4CallEiPPv@Base 2.0.0
 _ZN5Peony8FMWindow11qt_metacastEPKc@Base 2.0.0
 _ZN5Peony8FMWindow11resizeEventEP12QResizeEvent@Base 2.0.0
 _ZN5Peony8FMWindow12filterUpdateEiii@Base 2.0.0
 _ZN5Peony8FMWindow12searchFilterE7QStringS1_bb@Base 2.0.0
 _ZN5Peony8FMWindow13advanceSearchEv@Base 2.0.0
 _ZN5Peony8FMWindow13getCurrentUriEv@Base 2.0.0
 _ZN5Peony8FMWindow13keyPressEventEP9QKeyEvent@Base 2.0.0
#MISSING: 2.1.0# _ZN5Peony8FMWindow13setShowHiddenEb@Base 2.0.0
 _ZN5Peony8FMWindow13setShowHiddenEv@Base 2.0.0
 _ZN5Peony8FMWindow14getCurrentPageEv@Base 2.0.0
 _ZN5Peony8FMWindow14tabPageChangedEv@Base 2.0.0
 _ZN5Peony8FMWindow15beginSwitchViewERK7QString@Base 2.0.0
 _ZN5Peony8FMWindow16forceStopLoadingEv@Base 2.0.0
 _ZN5Peony8FMWindow16staticMetaObjectE@Base 2.0.0
 _ZN5Peony8FMWindow17activeViewChangedEPKNS_23DirectoryViewProxyIfaceE@Base 2.0.0
 _ZN5Peony8FMWindow17locationChangeEndEv@Base 2.0.0
#MISSING: 2.1.0# _ZN5Peony8FMWindow18setSortFolderFirstEb@Base 2.0.0
 _ZN5Peony8FMWindow18setSortFolderFirstEv@Base 2.1.0
 _ZN5Peony8FMWindow19getCurrentSortOrderEv@Base 2.0.0
 _ZN5Peony8FMWindow19getLastNonSearchUriEv@Base 2.1.0
 _ZN5Peony8FMWindow19getWindowShowHiddenEv@Base 2.1.0
 _ZN5Peony8FMWindow19locationChangeStartEv@Base 2.0.0
 _ZN5Peony8FMWindow19onPreviewPageSwitchERK7QString@Base 2.0.0
 _ZN5Peony8FMWindow19setCurrentSortOrderEN2Qt9SortOrderE@Base 2.0.0
 _ZN5Peony8FMWindow20getCurrentSelectionsEv@Base 2.0.0
 _ZN5Peony8FMWindow20getCurrentSortColumnEv@Base 2.0.0
 _ZN5Peony8FMWindow20setCurrentSortColumnEi@Base 2.0.0
 _ZN5Peony8FMWindow21getCurrentAllFileUrisEv@Base 2.0.0
 _ZN5Peony8FMWindow22getCurrentPageViewTypeEv@Base 2.0.0
 _ZN5Peony8FMWindow22windowSelectionChangedEv@Base 2.0.0
 _ZN5Peony8FMWindow23setCurrentSelectionUrisERK11QStringList@Base 2.0.0
 _ZN5Peony8FMWindow24getWindowSortFolderFirstEv@Base 2.1.0
#MISSING: 2.1.0# _ZN5Peony8FMWindow26setUseDefaultNameSortOrderEb@Base 2.0.0
 _ZN5Peony8FMWindow26setUseDefaultNameSortOrderEv@Base 2.1.0
 _ZN5Peony8FMWindow28getCurrentSelectionFileInfosEv@Base 2.0.0
 _ZN5Peony8FMWindow32getWindowUseDefaultNameSortOrderEv@Base 2.1.0
 _ZN5Peony8FMWindow6createERK11QStringList@Base 2.1.0
 _ZN5Peony8FMWindow6createERK7QString@Base 2.1.0
 _ZN5Peony8FMWindow7editUriERK7QString@Base 2.0.0
 _ZN5Peony8FMWindow7goToUriERK7QStringbb@Base 2.0.0
 _ZN5Peony8FMWindow7refreshEv@Base 2.0.0
 _ZN5Peony8FMWindow8editUrisERK11QStringList@Base 2.0.0
 _ZN5Peony8FMWindowC1ERK7QStringP7QWidget@Base 2.0.0
 _ZN5Peony8FMWindowC2ERK7QStringP7QWidget@Base 2.0.0
 _ZN5Peony8FMWindowD0Ev@Base 2.0.0
 _ZN5Peony8FMWindowD1Ev@Base 2.0.0
 _ZN5Peony8FMWindowD2Ev@Base 2.0.0
 _ZN5Peony8FileInfo11qt_metacallEN11QMetaObject4CallEiPPv@Base 2.0.0
 _ZN5Peony8FileInfo11qt_metacastEPKc@Base 2.0.0
 _ZN5Peony8FileInfo16staticMetaObjectE@Base 2.0.0
 _ZN5Peony8FileInfo7fromUriE7QStringb@Base 2.0.0
 _ZN5Peony8FileInfo7updatedEv@Base 2.0.0
 _ZN5Peony8FileInfo8fromPathE7QStringb@Base 2.0.0
 _ZN5Peony8FileInfo9fromGFileEP6_GFileb@Base 2.0.0
 _ZN5Peony8FileInfoC1EP7QObject@Base 2.0.0
 _ZN5Peony8FileInfoC1ERK7QStringP7QObject@Base 2.0.0
 _ZN5Peony8FileInfoC2EP7QObject@Base 2.0.0
 _ZN5Peony8FileInfoC2ERK7QStringP7QObject@Base 2.0.0
 _ZN5Peony8FileInfoD0Ev@Base 2.0.0
 _ZN5Peony8FileInfoD1Ev@Base 2.0.0
 _ZN5Peony8FileInfoD2Ev@Base 2.0.0
 _ZN5Peony8FileItem10childAddedERK7QString@Base 2.0.0
 _ZN5Peony8FileItem11hasChildrenEv@Base 2.0.0
 _ZN5Peony8FileItem11qt_metacallEN11QMetaObject4CallEiPPv@Base 2.0.0
 _ZN5Peony8FileItem11qt_metacastEPKc@Base 2.0.0
 _ZN5Peony8FileItem12childRemovedERK7QString@Base 2.0.0
 _ZN5Peony8FileItem12onChildAddedERK7QString@Base 2.0.0
 _ZN5Peony8FileItem13clearChildrenEv@Base 2.0.0
 _ZN5Peony8FileItem14onChildRemovedERK7QString@Base 2.0.0
 _ZN5Peony8FileItem14updateInfoSyncEv@Base 2.0.0
 _ZN5Peony8FileItem15getChildFromUriE7QString@Base 2.0.0
 _ZN5Peony8FileItem15lastColumnIndexEv@Base 2.0.0
 _ZN5Peony8FileItem15updateInfoAsyncEv@Base 2.0.0
 _ZN5Peony8FileItem16findChildrenSyncEv@Base 2.0.0
 _ZN5Peony8FileItem16firstColumnIndexEv@Base 2.0.0
 _ZN5Peony8FileItem16staticMetaObjectE@Base 2.0.0
 _ZN5Peony8FileItem17findChildrenAsyncEv@Base 2.0.0
 _ZN5Peony8FileItem18cancelFindChildrenEv@Base 2.0.0
 _ZN5Peony8FileItem24onUpdateDirectoryRequestEv@Base 2.2.0
 _ZN5Peony8FileItem3uriEv@Base 2.0.0
 _ZN5Peony8FileItem7deletedERK7QString@Base 2.0.0
 _ZN5Peony8FileItem7renamedERK7QStringS3_@Base 2.0.0
 _ZN5Peony8FileItem9onDeletedERK7QString@Base 2.0.0
 _ZN5Peony8FileItem9onRenamedERK7QStringS3_@Base 2.0.0
 _ZN5Peony8FileItemC1ESt10shared_ptrINS_8FileInfoEEPS0_PNS_13FileItemModelEP7QObject@Base 2.0.0
 _ZN5Peony8FileItemC2ESt10shared_ptrINS_8FileInfoEEPS0_PNS_13FileItemModelEP7QObject@Base 2.0.0
 _ZN5Peony8FileItemD0Ev@Base 2.0.0
 _ZN5Peony8FileItemD1Ev@Base 2.0.0
 _ZN5Peony8FileItemD2Ev@Base 2.0.0
 _ZN5Peony8FileItemeqERKS0_@Base 2.0.0
 _ZN5Peony8FileNode15getRelativePathEv@Base 2.0.0
 (arch= !armel !armhf !i386 !mipsel !hppa !m68k !sh4 !x32 !ppc64el)_ZN5Peony8FileNode16computeTotalSizeEPl@Base 2.0.0
 (arch=armel)_ZN5Peony8FileNode16computeTotalSizeEPx@Base 2.0.1
 _ZN5Peony8FileNode17resoveDestFileUriERK7QString@Base 2.0.0
 _ZN5Peony8FileNode23findChildrenRecursivelyEv@Base 2.0.0
 _ZN5Peony8FileNodeC1E7QStringPS0_PNS_16FileNodeReporterE@Base 2.0.0
 _ZN5Peony8FileNodeC2E7QStringPS0_PNS_16FileNodeReporterE@Base 2.0.0
 _ZN5Peony8FileNodeD1Ev@Base 2.0.0
 _ZN5Peony8FileNodeD2Ev@Base 2.0.0
 _ZN5Peony8PathEdit11qt_metacallEN11QMetaObject4CallEiPPv@Base 2.0.0
 _ZN5Peony8PathEdit11qt_metacastEPKc@Base 2.0.0
 _ZN5Peony8PathEdit12focusInEventEP11QFocusEvent@Base 2.0.0
 _ZN5Peony8PathEdit13editCancelledEv@Base 2.0.0
 _ZN5Peony8PathEdit13focusOutEventEP11QFocusEvent@Base 2.0.0
 _ZN5Peony8PathEdit13keyPressEventEP9QKeyEvent@Base 2.0.0
 _ZN5Peony8PathEdit15mousePressEventEP11QMouseEvent@Base 2.1.0
 _ZN5Peony8PathEdit16staticMetaObjectE@Base 2.0.0
 _ZN5Peony8PathEdit16uriChangeRequestERK7QString@Base 2.0.0
 _ZN5Peony8PathEdit6setUriERK7QString@Base 2.0.0
 _ZN5Peony8PathEditC1EP7QWidget@Base 2.0.0
 _ZN5Peony8PathEditC2EP7QWidget@Base 2.0.0
 _ZN5Peony8PathEditD0Ev@Base 2.0.0
 _ZN5Peony8PathEditD1Ev@Base 2.0.0
 _ZN5Peony8PathEditD2Ev@Base 2.0.0
 _ZN5Peony8TextEdit11qt_metacallEN11QMetaObject4CallEiPPv@Base 2.0.0
 _ZN5Peony8TextEdit11qt_metacastEPKc@Base 2.0.0
 _ZN5Peony8TextEdit13keyPressEventEP9QKeyEvent@Base 2.0.0
 _ZN5Peony8TextEdit16staticMetaObjectE@Base 2.0.0
 _ZN5Peony8TextEdit17finishEditRequestEv@Base 2.0.0
 _ZN5Peony8TextEditC1EP7QWidget@Base 2.0.0
 _ZN5Peony8TextEditC2EP7QWidget@Base 2.0.0
 _ZN5Peony8TextEditD0Ev@Base 2.0.0
 _ZN5Peony8TextEditD1Ev@Base 2.0.0
 _ZN5Peony8TextEditD2Ev@Base 2.0.0
 _ZN5Peony9FileUtils10getFileUriERKSt10shared_ptrINS_15GObjectTemplateI6_GFileEEE@Base 2.0.0
 _ZN5Peony9FileUtils11isFileExsitERK7QString@Base 2.0.0
 _ZN5Peony9FileUtils11isMountRootERK7QString@Base 2.1.0
 _ZN5Peony9FileUtils12getParentUriERK7QString@Base 2.0.0
 _ZN5Peony9FileUtils12getTargetUriERK7QString@Base 2.0.0
 _ZN5Peony9FileUtils13getFileParentERKSt10shared_ptrINS_15GObjectTemplateI6_GFileEEE@Base 2.0.0
 _ZN5Peony9FileUtils13toDisplayUrisERK11QStringList@Base 2.0.0
 _ZN5Peony9FileUtils14getUriBaseNameERK7QString@Base 2.0.0
 _ZN5Peony9FileUtils15getChildrenUrisERK7QString@Base 2.2.0
 _ZN5Peony9FileUtils15getFileBaseNameERKSt10shared_ptrINS_15GObjectTemplateI6_GFileEEE@Base 2.0.0
 _ZN5Peony9FileUtils15getFileIconNameERK7QString@Base 2.0.0
 _ZN5Peony9FileUtils15getFileIsFolderERK7QString@Base 2.0.0
 _ZN5Peony9FileUtils15getFileIsFolderERKSt10shared_ptrINS_15GObjectTemplateI6_GFileEEE@Base 2.0.0
 _ZN5Peony9FileUtils15getRelativePathERKSt10shared_ptrINS_15GObjectTemplateI6_GFileEEES7_@Base 2.0.0
 _ZN5Peony9FileUtils15isFileDirectoryERK7QString@Base 2.1.0
 _ZN5Peony9FileUtils15queryVolumeInfoERK7QStringRS1_S4_S3_@Base 2.1.0
 _ZN5Peony9FileUtils16stringLesserThanERK7QStringS3_@Base 2.0.0
 _ZN5Peony9FileUtils17getEnumerateErrorERK7QString@Base 2.0.0
 _ZN5Peony9FileUtils17isFileUnmountableERK7QString@Base 2.1.0
 _ZN5Peony9FileUtils18getFileDisplayNameERK7QString@Base 2.0.0
 _ZN5Peony9FileUtils18getFileHasChildrenERKSt10shared_ptrINS_15GObjectTemplateI6_GFileEEE@Base 2.0.0
 _ZN5Peony9FileUtils19resolveRelativePathERKSt10shared_ptrINS_15GObjectTemplateI6_GFileEEERK7QString@Base 2.0.0
 _ZN5Peony9FileUtils21getQStringFromCStringEPcb@Base 2.0.0
 _ZN5Peony9FileUtils22stringStartWithChineseERK7QString@Base 2.0.0
 _ZN5Peony9FileUtils29getNonSuffixedBaseNameFromUriERK7QString@Base 2.0.0
 _ZN5Peony9FileUtilsC1Ev@Base 2.0.0
 _ZN5Peony9FileUtilsC2Ev@Base 2.0.0
 _ZN5Peony9SearchBar11qt_metacallEN11QMetaObject4CallEiPPv@Base 2.0.0
 _ZN5Peony9SearchBar11qt_metacastEPKc@Base 2.0.0
 _ZN5Peony9SearchBar12focusInEventEP11QFocusEvent@Base 2.0.0
 _ZN5Peony9SearchBar13focusOutEventEP11QFocusEvent@Base 2.0.0
 _ZN5Peony9SearchBar13hideTableViewEv@Base 2.0.0
 _ZN5Peony9SearchBar13searchRequestERK7QString@Base 2.0.0
 _ZN5Peony9SearchBar14initTableModelEv@Base 2.0.0
 _ZN5Peony9SearchBar14onTableClickedERK11QModelIndex@Base 2.0.0
 _ZN5Peony9SearchBar16searchKeyChangedERK7QString@Base 2.0.0
 _ZN5Peony9SearchBar16staticMetaObjectE@Base 2.0.0
 _ZN5Peony9SearchBar16updateTableModelEv@Base 2.0.0
 _ZN5Peony9SearchBar17clearSearchRecordEv@Base 2.0.0
 _ZN5Peony9SearchBar4initEb@Base 2.0.0
 _ZN5Peony9SearchBarC1EPNS_8FMWindowEP7QWidget@Base 2.0.0
 _ZN5Peony9SearchBarC2EPNS_8FMWindowEP7QWidget@Base 2.0.0
 _ZN5Peony9SearchBarD0Ev@Base 2.0.0
 _ZN5Peony9SearchBarD1Ev@Base 2.0.0
 _ZN5Peony9SearchBarD2Ev@Base 2.0.0
 _ZN5Peony9StatusBar10paintEventEP11QPaintEvent@Base 2.0.0
 _ZN5Peony9StatusBar11qt_metacallEN11QMetaObject4CallEiPPv@Base 2.0.0
 _ZN5Peony9StatusBar11qt_metacastEPKc@Base 2.0.0
 _ZN5Peony9StatusBar16staticMetaObjectE@Base 2.0.0
 _ZN5Peony9StatusBar6updateERK7QString@Base 2.0.0
 _ZN5Peony9StatusBar6updateEv@Base 2.0.0
 _ZN5Peony9StatusBarC1EPNS_13FMWindowIfaceEP7QWidget@Base 2.1.0
#MISSING: 2.1.0# _ZN5Peony9StatusBarC1EPNS_8FMWindowEP7QWidget@Base 2.0.0
 _ZN5Peony9StatusBarC2EPNS_13FMWindowIfaceEP7QWidget@Base 2.1.0
#MISSING: 2.1.0# _ZN5Peony9StatusBarC2EPNS_8FMWindowEP7QWidget@Base 2.0.0
 _ZN5Peony9StatusBarD0Ev@Base 2.0.0
 _ZN5Peony9StatusBarD1Ev@Base 2.0.0
 _ZN5Peony9StatusBarD2Ev@Base 2.0.0
 _ZN5Peony9wrapGFileEP6_GFile@Base 2.0.0
 _ZN5Peony9wrapGIconEP6_GIcon@Base 2.0.0
 (optional=templinst)_ZN5QHashI7QString11QStringListE11deleteNode2EPN9QHashData4NodeE@Base 2.0.0
 (optional=templinst)_ZN5QHashI7QString11QStringListE13duplicateNodeEPN9QHashData4NodeEPv@Base 2.0.0
 (optional=templinst|arch= !s390x)_ZN5QHashI7QString11QStringListE6removeERKS0_@Base 2.0.0
 (optional=templinst)_ZN5QHashI7QString5QIconE11deleteNode2EPN9QHashData4NodeE@Base 2.0.0
 (optional=templinst)_ZN5QHashI7QString5QIconE13duplicateNodeEPN9QHashData4NodeEPv@Base 2.0.0
 (optional=templinst|arch= !s390x)_ZN5QHashI7QString5QIconE6removeERKS0_@Base 2.0.0
 (optional=templinst)_ZN5QHashI7QString8QVariantE11deleteNode2EPN9QHashData4NodeE@Base 2.0.0
 (optional=templinst)_ZN5QHashI7QString8QVariantE13duplicateNodeEPN9QHashData4NodeEPv@Base 2.0.0
 (optional=templinst|arch= !s390x)_ZN5QHashI7QString8QVariantE6removeERKS0_@Base 2.0.0
 (optional=templinst)_ZN5QHashI7QStringPN5Peony15PluginInterfaceEE11deleteNode2EPN9QHashData4NodeE@Base 2.0.0
 (optional=templinst)_ZN5QHashI7QStringPN5Peony15PluginInterfaceEE13duplicateNodeEPN9QHashData4NodeEPv@Base 2.0.0
 (optional=templinst)_ZN5QHashI7QStringPN5Peony19MenuPluginInterfaceEE11deleteNode2EPN9QHashData4NodeE@Base 2.0.0
 (optional=templinst)_ZN5QHashI7QStringPN5Peony19MenuPluginInterfaceEE13duplicateNodeEPN9QHashData4NodeEPv@Base 2.0.0
#MISSING: 2.1.0# (optional=templinst)_ZN5QHashI7QStringPN5Peony24DirectoryViewPluginIfaceEE11deleteNode2EPN9QHashData4NodeE@Base 2.0.0
#MISSING: 2.1.0# (optional=templinst)_ZN5QHashI7QStringPN5Peony24DirectoryViewPluginIfaceEE13duplicateNodeEPN9QHashData4NodeEPv@Base 2.0.0
 (optional=templinst)_ZN5QHashI7QStringPN5Peony25DirectoryViewPluginIface2EE11deleteNode2EPN9QHashData4NodeE@Base 2.0.0
 (optional=templinst)_ZN5QHashI7QStringPN5Peony25DirectoryViewPluginIface2EE13duplicateNodeEPN9QHashData4NodeEPv@Base 2.0.0
 (optional=templinst)_ZN5QHashI7QStringPN5Peony34PropertiesWindowTabPagePluginIfaceEE11deleteNode2EPN9QHashData4NodeE@Base 2.0.0
 (optional=templinst)_ZN5QHashI7QStringPN5Peony34PropertiesWindowTabPagePluginIfaceEE13duplicateNodeEPN9QHashData4NodeEPv@Base 2.0.0
 (optional=templinst)_ZN5QHashI7QStringS0_E11deleteNode2EPN9QHashData4NodeE@Base 2.0.0
 (optional=templinst)_ZN5QHashI7QStringS0_E13duplicateNodeEPN9QHashData4NodeEPv@Base 2.0.0
 (optional=templinst)_ZN5QHashI7QStringSt10shared_ptrIN5Peony8FileInfoEEE11deleteNode2EPN9QHashData4NodeE@Base 2.0.0
 (optional=templinst)_ZN5QHashI7QStringSt10shared_ptrIN5Peony8FileInfoEEE13duplicateNodeEPN9QHashData4NodeEPv@Base 2.0.0
 (optional=templinst|arch= !s390x)_ZN5QHashI7QStringSt10shared_ptrIN5Peony8FileInfoEEE6removeERKS0_@Base 2.0.0
 (optional=templinst)_ZN5QHashIP15QListWidgetItemPN5Peony16FileLaunchActionEE11deleteNode2EPN9QHashData4NodeE@Base 2.0.0
 (optional=templinst)_ZN5QHashIP15QListWidgetItemPN5Peony16FileLaunchActionEE13duplicateNodeEPN9QHashData4NodeEPv@Base 2.0.0
 (optional=templinst)_ZN5QHashIi5QPairIi7QStringEE11deleteNode2EPN9QHashData4NodeE@Base 2.0.0
 (optional=templinst)_ZN5QHashIi5QPairIi7QStringEE13duplicateNodeEPN9QHashData4NodeEPv@Base 2.0.0
 (optional=templinst)_ZN5QHashIiN5Peony13FileOperation12ResponseTypeEE11deleteNode2EPN9QHashData4NodeE@Base 2.0.0
 (optional=templinst)_ZN5QHashIiN5Peony13FileOperation12ResponseTypeEE13duplicateNodeEPN9QHashData4NodeEPv@Base 2.0.0
 (optional=templinst)_ZN5QHashIiN5Peony13FileOperation12ResponseTypeEE6insertERKiRKS2_@Base 2.1.0
 (optional=templinst)_ZN5QListI10QByteArrayE13detach_helperEi@Base 2.0.0
 (optional=templinst)_ZN5QListI10QByteArrayED1Ev@Base 2.0.0
 (optional=templinst)_ZN5QListI10QByteArrayED2Ev@Base 2.0.0
 (optional=templinst)_ZN5QListI11QModelIndexE13detach_helperEi@Base 2.0.0
 (optional=templinst)_ZN5QListI11QModelIndexE18detach_helper_growEii@Base 2.0.0
 (optional=templinst)_ZN5QListI11QModelIndexE6appendERKS0_@Base 2.0.0
 (optional=templinst)_ZN5QListI11QModelIndexEC1ERKS1_@Base 2.0.0
 (optional=templinst)_ZN5QListI11QModelIndexEC2ERKS1_@Base 2.0.0
 (optional=templinst)_ZN5QListI11QModelIndexED1Ev@Base 2.0.0
 (optional=templinst)_ZN5QListI11QModelIndexED2Ev@Base 2.0.0
 (optional=templinst)_ZN5QListI12QKeySequenceE18detach_helper_growEii@Base 2.0.0
 (optional=templinst)_ZN5QListI12QKeySequenceE6appendERKS0_@Base 2.0.0
 (optional=templinst)_ZN5QListI12QKeySequenceED1Ev@Base 2.0.0
 (optional=templinst)_ZN5QListI12QKeySequenceED2Ev@Base 2.0.0
 (optional=templinst)_ZN5QListI19QItemSelectionRangeEC1ERKS1_@Base 2.0.0
 (optional=templinst)_ZN5QListI19QItemSelectionRangeEC2ERKS1_@Base 2.0.0
 (optional=templinst)_ZN5QListI19QItemSelectionRangeED1Ev@Base 2.0.0
 (optional=templinst)_ZN5QListI19QItemSelectionRangeED2Ev@Base 2.0.0
 (optional=templinst|arch= !ppc64el)_ZN5QListI21QPersistentModelIndexEC1ERKS1_@Base 2.0.0
 (optional=templinst|arch= !ppc64el)_ZN5QListI21QPersistentModelIndexEC2ERKS1_@Base 2.0.0
 (optional=templinst)_ZN5QListI4QUrlE13detach_helperEi@Base 2.0.0
 (optional=templinst)_ZN5QListI4QUrlE18detach_helper_growEii@Base 2.0.0
 (optional=templinst)_ZN5QListI4QUrlE6appendERKS0_@Base 2.0.0
 (optional=templinst)_ZN5QListI4QUrlED1Ev@Base 2.0.0
 (optional=templinst)_ZN5QListI4QUrlED2Ev@Base 2.0.0
 (optional=templinst)_ZN5QListI5QPairIi7QStringEE13detach_helperEi@Base 2.0.0
 (optional=templinst)_ZN5QListI5QPairIi7QStringEE18detach_helper_growEii@Base 2.0.0
 (optional=templinst|arch= !ppc64el)_ZN5QListI5QPairIi7QStringEE6appendERKS2_@Base 2.0.0
 (optional=templinst)_ZN5QListI5QPairIi7QStringEED1Ev@Base 2.0.0
 (optional=templinst)_ZN5QListI5QPairIi7QStringEED2Ev@Base 2.0.0
 (optional=templinst)_ZN5QListI6QColorE13detach_helperEi@Base 2.1.0
 (optional=templinst)_ZN5QListI6QColorE18detach_helper_growEii@Base 2.1.0
 (optional=templinst)_ZN5QListI6QColorE6appendERKS0_@Base 2.1.0
 (optional=templinst)_ZN5QListI6QColorED1Ev@Base 2.1.0
 (optional=templinst)_ZN5QListI6QColorED2Ev@Base 2.1.0
 (optional=templinst)_ZN5QListI7PWDItemE18detach_helper_growEii@Base 2.0.0
 (optional=templinst)_ZN5QListI7PWDItemE6appendERKS0_@Base 2.0.0
 (optional=templinst)_ZN5QListI7QStringE13detach_helperEi@Base 2.0.0
 (optional=templinst)_ZN5QListI7QStringE18detach_helper_growEii@Base 2.0.0
 (optional=templinst)_ZN5QListI7QStringE5clearEv@Base 2.0.0
 (optional=templinst)_ZN5QListI7QStringE6appendERKS0_@Base 2.0.0
 (optional=templinst)_ZN5QListI7QStringE6detachEv@Base 2.1.0
#MISSING: 2.1.0# (optional=templinst)_ZN5QListI7QStringE7reserveEi@Base 2.0.0
 (optional=templinst)_ZN5QListI7QStringE9removeAllERKS0_@Base 2.0.0
 (optional=templinst)_ZN5QListI7QStringE9removeOneERKS0_@Base 2.0.0
 (optional=templinst)_ZN5QListI7QStringEC1ERKS1_@Base 2.0.0
 (optional=templinst)_ZN5QListI7QStringEC2ERKS1_@Base 2.0.0
 (optional=templinst)_ZN5QListI7QStringED1Ev@Base 2.0.0
 (optional=templinst)_ZN5QListI7QStringED2Ev@Base 2.0.0
 (optional=templinst)_ZN5QListI7QStringEpLERKS1_@Base 2.0.0
 (optional=templinst)_ZN5QListIN7QWizard12WizardButtonEE18detach_helper_growEii@Base 2.0.0
 (optional=templinst)_ZN5QListIN7QWizard12WizardButtonEE6appendERKS1_@Base 2.0.0
 (optional=templinst)_ZN5QListIN7QWizard12WizardButtonEED1Ev@Base 2.0.0
 (optional=templinst)_ZN5QListIN7QWizard12WizardButtonEED2Ev@Base 2.0.0
 (optional=templinst)_ZN5QListIP11QToolButtonE18detach_helper_growEii@Base 2.2.0
 (optional=templinst)_ZN5QListIP11QToolButtonED1Ev@Base 2.2.0
 (optional=templinst)_ZN5QListIP11QToolButtonED2Ev@Base 2.2.0
 (optional=templinst)_ZN5QListIP13FileLabelItemE13detach_helperEi@Base 2.1.0
 (optional=templinst)_ZN5QListIP13FileLabelItemE18detach_helper_growEii@Base 2.1.0
 (optional=templinst)_ZN5QListIP13FileLabelItemE6appendERKS1_@Base 2.1.0
 (optional=templinst)_ZN5QListIP13FileLabelItemEC1ERKS2_@Base 2.1.0
 (optional=templinst)_ZN5QListIP13FileLabelItemEC2ERKS2_@Base 2.1.0
 (optional=templinst)_ZN5QListIP13FileLabelItemED1Ev@Base 2.1.0
 (optional=templinst)_ZN5QListIP13FileLabelItemED2Ev@Base 2.1.0
 (optional=templinst)_ZN5QListIP13QStandardItemE18detach_helper_growEii@Base 2.0.0
 (optional=templinst)_ZN5QListIP13QStandardItemE6appendERKS1_@Base 2.0.0
 (optional=templinst)_ZN5QListIP13QStandardItemED1Ev@Base 2.0.0
 (optional=templinst)_ZN5QListIP13QStandardItemED2Ev@Base 2.0.0
 (optional=templinst)_ZN5QListIP7QActionE13detach_helperEi@Base 2.0.0
 (optional=templinst)_ZN5QListIP7QActionE18detach_helper_growEii@Base 2.0.0
 (optional=templinst)_ZN5QListIP7QActionE6appendERKS1_@Base 2.0.0
 (optional=templinst)_ZN5QListIP7QActionE6detachEv@Base 2.1.0
 (optional=templinst)_ZN5QListIP7QActionEC1ERKS2_@Base 2.0.0
 (optional=templinst)_ZN5QListIP7QActionEC2ERKS2_@Base 2.0.0
 (optional=templinst)_ZN5QListIP7QActionED1Ev@Base 2.0.0
 (optional=templinst)_ZN5QListIP7QActionED2Ev@Base 2.0.0
 (optional=templinst)_ZN5QListIP7QActionEpLERKS2_@Base 2.0.0
 (optional=templinst)_ZN5QListIP7QObjectEC1ERKS2_@Base 2.1.0
 (optional=templinst)_ZN5QListIP7QObjectEC2ERKS2_@Base 2.1.0
 (optional=templinst)_ZN5QListIP7QObjectED1Ev@Base 2.1.0
 (optional=templinst)_ZN5QListIP7QObjectED2Ev@Base 2.1.0
 (optional=templinst)_ZN5QListIP7QRegExpE18detach_helper_growEii@Base 2.1.0
 (optional=templinst)_ZN5QListIP7QRegExpE6appendERKS1_@Base 2.1.0
 (optional=templinst)_ZN5QListIPN5Peony13FileOperationEED1Ev@Base 2.1.0
 (optional=templinst)_ZN5QListIPN5Peony13FileOperationEED2Ev@Base 2.1.0
 (optional=templinst|arch= !ppc64el)_ZN5QListIPN5Peony16FileLaunchActionEE13detach_helperEi@Base 2.0.0
 (optional=templinst)_ZN5QListIPN5Peony16FileLaunchActionEE18detach_helper_growEii@Base 2.0.0
 (optional=templinst)_ZN5QListIPN5Peony16FileLaunchActionEE6appendERKS2_@Base 2.0.0
 (optional=templinst)_ZN5QListIPN5Peony16FileLaunchActionEED1Ev@Base 2.0.0
 (optional=templinst)_ZN5QListIPN5Peony16FileLaunchActionEED2Ev@Base 2.0.0
 (optional=templinst)_ZN5QListIPN5Peony25DirectoryViewPluginIface2EE13detach_helperEi@Base 2.1.0
 (optional=templinst)_ZN5QListIPN5Peony25DirectoryViewPluginIface2EE18detach_helper_growEii@Base 2.1.0
 (optional=templinst)_ZN5QListIPN5Peony25DirectoryViewPluginIface2EED1Ev@Base 2.1.0
 (optional=templinst)_ZN5QListIPN5Peony25DirectoryViewPluginIface2EED2Ev@Base 2.1.0
 (optional=templinst)_ZN5QListIPN5Peony8FileNodeEE13detach_helperEi@Base 2.0.0
 (optional=templinst)_ZN5QListIPN5Peony8FileNodeEE18detach_helper_growEii@Base 2.0.0
 (optional=templinst)_ZN5QListIPN5Peony8FileNodeEE5clearEv@Base 2.0.0
 (optional=templinst)_ZN5QListIPN5Peony8FileNodeEE6appendERKS2_@Base 2.0.0
 (optional=templinst)_ZN5QListIPN5Peony8FileNodeEE6detachEv@Base 2.1.0
 (optional=templinst)_ZN5QListIPN5Peony8FileNodeEED1Ev@Base 2.0.0
 (optional=templinst)_ZN5QListIPN5Peony8FileNodeEED2Ev@Base 2.0.0
 (optional=templinst)_ZN5QListISt10shared_ptrIN5Peony8FileInfoEEE13detach_helperEi@Base 2.0.0
 (optional=templinst)_ZN5QListISt10shared_ptrIN5Peony8FileInfoEEE18detach_helper_growEii@Base 2.0.0
 (optional=templinst)_ZN5QListISt10shared_ptrIN5Peony8FileInfoEEE6appendERKS3_@Base 2.0.0
 (optional=templinst)_ZN5QListISt10shared_ptrIN5Peony8FileInfoEEEC1ERKS4_@Base 2.0.0
 (optional=templinst)_ZN5QListISt10shared_ptrIN5Peony8FileInfoEEEC2ERKS4_@Base 2.0.0
 (optional=templinst)_ZN5QListISt10shared_ptrIN5Peony8FileInfoEEED1Ev@Base 2.0.0
 (optional=templinst)_ZN5QListISt10shared_ptrIN5Peony8FileInfoEEED2Ev@Base 2.0.0
#MISSING: 2.2.0# (optional=templinst)_ZN5QListISt10shared_ptrIN5Peony8FileInfoEEEpLERKS4_@Base 2.0.0
 (optional=templinst)_ZN5QListIiE13detach_helperEi@Base 2.1.0
 (optional=templinst)_ZN5QListIiE18detach_helper_growEii@Base 2.1.0
 (optional=templinst)_ZN5QListIiE5clearEv@Base 2.1.0
 (optional=templinst)_ZN5QListIiE6appendERKi@Base 2.1.0
 (optional=templinst)_ZN5QListIiE9removeOneERKi@Base 2.1.0
 (optional=templinst)_ZN5QListIiEC1ERKS0_@Base 2.1.0
 (optional=templinst)_ZN5QListIiEC2ERKS0_@Base 2.1.0
 (optional=templinst)_ZN5QListIiED1Ev@Base 2.1.0
 (optional=templinst)_ZN5QListIiED2Ev@Base 2.1.0
 (optional=templinst)_ZN5QListIiEpLERKS0_@Base 2.1.0
 _ZN6QDebuglsEPKc@Base 2.0.0
 _ZN7PWDItemC1EP6passwd@Base 2.0.0
 _ZN7PWDItemC2EP6passwd@Base 2.0.0
 _ZN7PWDItemD1Ev@Base 2.0.0
 _ZN7PWDItemD2Ev@Base 2.0.0
 _ZN7QAction7triggerEv@Base 2.0.0
 _ZN7QStringD1Ev@Base 2.0.0
 _ZN7QStringD2Ev@Base 2.0.0
 (optional=templinst)_ZN7QVectorIPN5Peony11FileWatcherEE11reallocDataEii6QFlagsIN10QArrayData16AllocationOptionEE@Base 2.2.0
 (optional=templinst)_ZN7QVectorIPN5Peony19SideBarAbstractItemEE11reallocDataEii6QFlagsIN10QArrayData16AllocationOptionEE@Base 2.0.0
 (optional=templinst)_ZN7QVectorIPN5Peony19SideBarAbstractItemEE6appendEOS2_@Base 2.0.0
 (optional=templinst)_ZN7QVectorIPN5Peony8FileItemEE11reallocDataEii6QFlagsIN10QArrayData16AllocationOptionEE@Base 2.0.0
 (optional=templinst)_ZN7QVectorIPN5Peony8FileItemEE6appendERKS2_@Base 2.0.0
 (optional=templinst|arch= !ppc64el)_ZN7QVectorIPN5Peony8FileItemEE6resizeEi@Base 2.0.0
 (optional=templinst)_ZN7QVectorISt10shared_ptrIN5Peony17FileOperationInfoEEE11reallocDataEii6QFlagsIN10QArrayData16AllocationOptionEE@Base 2.0.0
 (optional=templinst)_ZN7QVectorISt10shared_ptrIN5Peony17FileOperationInfoEEE6appendERKS3_@Base 2.0.0
 (optional=templinst|arch= !ppc64el)_ZN7QVectorISt10shared_ptrIN5Peony17FileOperationInfoEEE6resizeEi@Base 2.0.0
 (optional=templinst)_ZN7QVectorISt10shared_ptrIN5Peony17FileOperationInfoEEED1Ev@Base 2.0.0
 (optional=templinst)_ZN7QVectorISt10shared_ptrIN5Peony17FileOperationInfoEEED2Ev@Base 2.0.0
 (optional=templinst)_ZN7QVectorIiE11reallocDataEii6QFlagsIN10QArrayData16AllocationOptionEE@Base 2.0.0
 (optional=templinst)_ZN7QVectorIiED1Ev@Base 2.0.0
 (optional=templinst)_ZN7QVectorIiED2Ev@Base 2.0.0
 (optional=templinst)_ZN8QMapDataI7QStringP11QToolButtonE7destroyEv@Base 2.2.0
 (optional=templinst)_ZN8QMapDataI7QStringPN5Peony22PreviewPagePluginIfaceEE7destroyEv@Base 2.0.0
 (optional=templinst)_ZN8QMapDataI7QStringS0_E7destroyEv@Base 2.1.0
 (optional=templinst)_ZN8QMapDataIi7QStringE7destroyEv@Base 2.0.0
 (optional=templinst)_ZN8QMapNodeI7QString8QVariantE14destroySubTreeEv@Base 2.0.0
 (optional=templinst)_ZN8QMapNodeI7QStringP11QToolButtonE14destroySubTreeEv@Base 2.2.0
 (optional=templinst)_ZN8QMapNodeI7QStringPN5Peony22PreviewPagePluginIfaceEE14destroySubTreeEv@Base 2.0.0
 (optional=templinst)_ZN8QMapNodeI7QStringS0_E14destroySubTreeEv@Base 2.1.0
 (optional=templinst)_ZN8QMapNodeIi7QStringE14destroySubTreeEv@Base 2.0.0
 (optional=templinst)_ZN9QtPrivate11QSlotObjectIM7QActionFvvENS_4ListIJEEEvE4implEiPNS_15QSlotObjectBaseEP7QObjectPPvPb@Base 2.0.0
 (optional=templinst)_ZN9QtPrivate11QSlotObjectIM7QDialogFvvENS_4ListIJEEEvE4implEiPNS_15QSlotObjectBaseEP7QObjectPPvPb@Base 2.0.0
 (optional=templinst)_ZN9QtPrivate11QSlotObjectIM7QObjectFvvENS_4ListIJEEEvE4implEiPNS_15QSlotObjectBaseEPS1_PPvPb@Base 2.0.0
 (optional=templinst)_ZN9QtPrivate11QSlotObjectIM7QWidgetFvbENS_4ListIJbEEEvE4implEiPNS_15QSlotObjectBaseEP7QObjectPPvPb@Base 2.0.0
 (optional=templinst)_ZN9QtPrivate11QSlotObjectIM7QWidgetFvvENS_4ListIJEEEvE4implEiPNS_15QSlotObjectBaseEP7QObjectPPvPb@Base 2.0.0
 (optional=templinst)_ZN9QtPrivate11QSlotObjectIM9QLineEditFvvENS_4ListIJEEEvE4implEiPNS_15QSlotObjectBaseEP7QObjectPPvPb@Base 2.0.0
 (optional=templinst)_ZN9QtPrivate11QSlotObjectIMN5Peony11FileInfoJobEFvvENS_4ListIJEEEvE4implEiPNS_15QSlotObjectBaseEP7QObjectPPvPb@Base 2.0.0
 (optional=templinst)_ZN9QtPrivate11QSlotObjectIMN5Peony12SideBarModelEFvRK11QModelIndexENS_4ListIJS5_EEEvE4implEiPNS_15QSlotObjectBaseEP7QObjectPPvPb@Base 2.0.0
 (optional=templinst)_ZN9QtPrivate11QSlotObjectIMN5Peony13DirectoryView14IconViewEditorEFvvENS_4ListIJEEEvE4implEiPNS_15QSlotObjectBaseEP7QObjectPPvPb@Base 2.0.0
 (optional=templinst)_ZN9QtPrivate11QSlotObjectIMN5Peony13DirectoryView8IconViewEFvvENS_4ListIJEEEvE4implEiPNS_15QSlotObjectBaseEP7QObjectPPvPb@Base 2.0.0
 (optional=templinst)_ZN9QtPrivate11QSlotObjectIMN5Peony13DirectoryView8ListViewEFvvENS_4ListIJEEEvE4implEiPNS_15QSlotObjectBaseEP7QObjectPPvPb@Base 2.0.0
 (optional=templinst)_ZN9QtPrivate11QSlotObjectIMN5Peony13FileOperationEFvRK7QStringRKxENS_4ListIJS5_S7_EEEvE4implEiPNS_15QSlotObjectBaseEP7QObjectPPvPb@Base 2.0.0
 (optional=templinst)_ZN9QtPrivate11QSlotObjectIMN5Peony13FileOperationEFvvENS_4ListIJEEEvE4implEiPNS_15QSlotObjectBaseEP7QObjectPPvPb@Base 2.0.0
 (optional=templinst)_ZN9QtPrivate11QSlotObjectIMN5Peony13NavigationBarEFvRK7QStringbbENS_4ListIJS5_bbEEEvE4implEiPNS_15QSlotObjectBaseEP7QObjectPPvPb@Base 2.0.0
 (optional=templinst)_ZN9QtPrivate11QSlotObjectIMN5Peony13NavigationBarEFvvENS_4ListIJEEEvE4implEiPNS_15QSlotObjectBaseEP7QObjectPPvPb@Base 2.0.0
 (optional=templinst)_ZN9QtPrivate11QSlotObjectIMN5Peony14ClipboardUtilsEFvvENS_4ListIJEEEvE4implEiPNS_15QSlotObjectBaseEP7QObjectPPvPb@Base 2.0.0
 (optional=templinst)_ZN9QtPrivate11QSlotObjectIMN5Peony14FileEnumeratorEFvvENS_4ListIJEEEvE4implEiPNS_15QSlotObjectBaseEP7QObjectPPvPb@Base 2.0.0
 (optional=templinst)_ZN9QtPrivate11QSlotObjectIMN5Peony15FilePreviewPageEFvRK7QStringyENS_4ListIJS5_RKxEEEvE4implEiPNS_15QSlotObjectBaseEP7QObjectPPvPb@Base 2.0.0
 (optional=templinst)_ZN9QtPrivate11QSlotObjectIMN5Peony15FilePreviewPageEFvvENS_4ListIJEEEvE4implEiPNS_15QSlotObjectBaseEP7QObjectPPvPb@Base 2.0.0
 (optional=templinst)_ZN9QtPrivate11QSlotObjectIMN5Peony16AdvanceSearchBarEFvvENS_4ListIJEEEvE4implEiPNS_15QSlotObjectBaseEP7QObjectPPvPb@Base 2.0.0
 (optional=templinst)_ZN9QtPrivate11QSlotObjectIMN5Peony19BasicPropertiesPageEFvRK7QStringS5_ENS_4ListIJS5_S5_EEEvE4implEiPNS_15QSlotObjectBaseEP7QObjectPPvPb@Base 2.0.0
 (optional=templinst)_ZN9QtPrivate11QSlotObjectIMN5Peony19BasicPropertiesPageEFvRK7QStringyENS_4ListIJS5_RKxEEEvE4implEiPNS_15QSlotObjectBaseEP7QObjectPPvPb@Base 2.0.0
 (optional=templinst)_ZN9QtPrivate11QSlotObjectIMN5Peony19DirectoryViewWidgetEFvbENS_4ListIJbEEEvE4implEiPNS_15QSlotObjectBaseEP7QObjectPPvPb@Base 2.1.0
 (optional=templinst)_ZN9QtPrivate11QSlotObjectIMN5Peony19DirectoryViewWidgetEFvvENS_4ListIJEEEvE4implEiPNS_15QSlotObjectBaseEP7QObjectPPvPb@Base 2.0.0
 (optional=templinst)_ZN9QtPrivate11QSlotObjectIMN5Peony20FileOperationManagerEF8QVariantRK7QStringS6_RKSt10shared_ptrINS1_13GErrorWrapperEEbENS_4ListIJS6_S6_SB_bEEES3_E4implEiPNS_15QSlotObjectBaseEP7QObjectPPvPb@Base 2.0.0
 (optional=templinst)_ZN9QtPrivate11QSlotObjectIMN5Peony22DirectoryViewContainerEFvRK6QPointENS_4ListIJS5_EEEvE4implEiPNS_15QSlotObjectBaseEP7QObjectPPvPb@Base 2.0.0
 (optional=templinst)_ZN9QtPrivate11QSlotObjectIMN5Peony22DirectoryViewContainerEFvRK7QStringENS_4ListIJS5_EEEvE4implEiPNS_15QSlotObjectBaseEP7QObjectPPvPb@Base 2.0.0
 (optional=templinst)_ZN9QtPrivate11QSlotObjectIMN5Peony22DirectoryViewContainerEFvbENS_4ListIJbEEEvE4implEiPNS_15QSlotObjectBaseEP7QObjectPPvPb@Base 2.1.0
 (optional=templinst)_ZN9QtPrivate11QSlotObjectIMN5Peony22DirectoryViewContainerEFvvENS_4ListIJEEEvE4implEiPNS_15QSlotObjectBaseEP7QObjectPPvPb@Base 2.0.0
 (optional=templinst)_ZN9QtPrivate11QSlotObjectIMN5Peony24FileOperationErrorDialogEF8QVariantRK7QStringS6_RKSt10shared_ptrINS1_13GErrorWrapperEEbENS_4ListIJS6_S6_SB_bEEES3_E4implEiPNS_15QSlotObjectBaseEP7QObjectPPvPb@Base 2.1.0
 (optional=templinst)_ZN9QtPrivate11QSlotObjectIMN5Peony25PermissionsPropertiesPageEFvRK7QStringS5_ENS_4ListIJS5_S5_EEEvE4implEiPNS_15QSlotObjectBaseEP7QObjectPPvPb@Base 2.0.0
 (optional=templinst)_ZN9QtPrivate11QSlotObjectIMN5Peony25PermissionsPropertiesPageEFviibENS_4ListIJiibEEEvE4implEiPNS_15QSlotObjectBaseEP7QObjectPPvPb@Base 2.0.0
 (optional=templinst)_ZN9QtPrivate11QSlotObjectIMN5Peony27FileOperationProgressWizardEFvRK7QStringENS_4ListIJS5_EEEvE4implEiPNS_15QSlotObjectBaseEP7QObjectPPvPb@Base 2.0.0
 (optional=templinst)_ZN9QtPrivate11QSlotObjectIMN5Peony27FileOperationProgressWizardEFvRK7QStringRKxENS_4ListIJS5_S7_EEEvE4implEiPNS_15QSlotObjectBaseEP7QObjectPPvPb@Base 2.0.0
 (optional=templinst)_ZN9QtPrivate11QSlotObjectIMN5Peony27FileOperationProgressWizardEFvRK7QStringS5_ENS_4ListIJS5_S5_EEEvE4implEiPNS_15QSlotObjectBaseEP7QObjectPPvPb@Base 2.0.0
 (optional=templinst)_ZN9QtPrivate11QSlotObjectIMN5Peony27FileOperationProgressWizardEFvRK7QStringS5_RKxENS_4ListIJS5_S5_S7_EEEvE4implEiPNS_15QSlotObjectBaseEP7QObjectPPvPb@Base 2.0.0
 (optional=templinst)_ZN9QtPrivate11QSlotObjectIMN5Peony27FileOperationProgressWizardEFvRK7QStringS5_yyENS_4ListIJS5_S5_RKxSA_EEEvE4implEiPNS_15QSlotObjectBaseEP7QObjectPPvPb@Base 2.0.0
 (optional=templinst)_ZN9QtPrivate11QSlotObjectIMN5Peony27FileOperationProgressWizardEFvvENS_4ListIJEEEvE4implEiPNS_15QSlotObjectBaseEP7QObjectPPvPb@Base 2.0.0
 (optional=templinst)_ZN9QtPrivate11QSlotObjectIMN5Peony28FileItemProxyFilterSortModelEFvvENS_4ListIJEEEvE4implEiPNS_15QSlotObjectBaseEP7QObjectPPvPb@Base 2.0.0
 (optional=templinst)_ZN9QtPrivate11QSlotObjectIMN5Peony7TabPageEFvRK6QPointENS_4ListIJS5_EEEvE4implEiPNS_15QSlotObjectBaseEP7QObjectPPvPb@Base 2.0.0
 (optional=templinst)_ZN9QtPrivate11QSlotObjectIMN5Peony7TabPageEFvRK7QStringbbENS_4ListIJS5_bbEEEvE4implEiPNS_15QSlotObjectBaseEP7QObjectPPvPb@Base 2.0.0
 (optional=templinst)_ZN9QtPrivate11QSlotObjectIMN5Peony7TabPageEFvvENS_4ListIJEEEvE4implEiPNS_15QSlotObjectBaseEP7QObjectPPvPb@Base 2.0.0
 (optional=templinst)_ZN9QtPrivate11QSlotObjectIMN5Peony8FMWindowEFvRK7QStringENS_4ListIJS5_EEEvE4implEiPNS_15QSlotObjectBaseEP7QObjectPPvPb@Base 2.0.0
 (optional=templinst)_ZN9QtPrivate11QSlotObjectIMN5Peony8FMWindowEFvRK7QStringbbENS_4ListIJS5_bbEEEvE4implEiPNS_15QSlotObjectBaseEP7QObjectPPvPb@Base 2.0.0
 (optional=templinst)_ZN9QtPrivate11QSlotObjectIMN5Peony8FMWindowEFvvENS_4ListIJEEEvE4implEiPNS_15QSlotObjectBaseEP7QObjectPPvPb@Base 2.0.0
 (optional=templinst)_ZN9QtPrivate11QSlotObjectIMN5Peony8FileItemEFvvENS_4ListIJEEEvE4implEiPNS_15QSlotObjectBaseEP7QObjectPPvPb@Base 2.2.0
 (optional=templinst)_ZN9QtPrivate11QSlotObjectIMN5Peony9SearchBarEFvRK7QStringENS_4ListIJS5_EEEvE4implEiPNS_15QSlotObjectBaseEP7QObjectPPvPb@Base 2.0.0
 (optional=templinst)_ZN9QtPrivate11QSlotObjectIMN5Peony9SearchBarEFvvENS_4ListIJEEEvE4implEiPNS_15QSlotObjectBaseEP7QObjectPPvPb@Base 2.0.0
 (optional=templinst)_ZN9QtPrivate16ConverterFunctorI5QListI11QModelIndexEN17QtMetaTypePrivate23QSequentialIterableImplENS4_33QSequentialIterableConvertFunctorIS3_EEE7convertEPKNS_25AbstractConverterFunctionEPKvPv@Base 2.0.0
 (optional=templinst)_ZN9QtPrivate16ConverterFunctorI5QListI11QModelIndexEN17QtMetaTypePrivate23QSequentialIterableImplENS4_33QSequentialIterableConvertFunctorIS3_EEED1Ev@Base 2.0.0
 (optional=templinst)_ZN9QtPrivate16ConverterFunctorI5QListI11QModelIndexEN17QtMetaTypePrivate23QSequentialIterableImplENS4_33QSequentialIterableConvertFunctorIS3_EEED2Ev@Base 2.0.0
 (optional=templinst)_ZN9QtPrivate16ConverterFunctorI5QListI21QPersistentModelIndexEN17QtMetaTypePrivate23QSequentialIterableImplENS4_33QSequentialIterableConvertFunctorIS3_EEE7convertEPKNS_25AbstractConverterFunctionEPKvPv@Base 2.0.0
 (optional=templinst)_ZN9QtPrivate16ConverterFunctorI5QListI21QPersistentModelIndexEN17QtMetaTypePrivate23QSequentialIterableImplENS4_33QSequentialIterableConvertFunctorIS3_EEED1Ev@Base 2.0.0
 (optional=templinst)_ZN9QtPrivate16ConverterFunctorI5QListI21QPersistentModelIndexEN17QtMetaTypePrivate23QSequentialIterableImplENS4_33QSequentialIterableConvertFunctorIS3_EEED2Ev@Base 2.0.0
 _ZN9QtPrivate8RefCount3refEv@Base 2.1.0
 (arch=armel)_ZN9__gnu_cxx24__concurrence_lock_errorD0Ev@Base 2.0.1
 (arch=armel)_ZN9__gnu_cxx24__concurrence_lock_errorD1Ev@Base 2.0.1
 (arch=armel)_ZN9__gnu_cxx24__concurrence_lock_errorD2Ev@Base 2.0.1
 (arch=armel)_ZN9__gnu_cxx26__concurrence_unlock_errorD0Ev@Base 2.0.1
 (arch=armel)_ZN9__gnu_cxx26__concurrence_unlock_errorD1Ev@Base 2.0.1
 (arch=armel)_ZN9__gnu_cxx26__concurrence_unlock_errorD2Ev@Base 2.0.1
 _ZNK13FileLabelItem10metaObjectEv@Base 2.1.0
 _ZNK14FileLabelModel10metaObjectEv@Base 2.1.0
 _ZNK14FileLabelModel4dataERK11QModelIndexi@Base 2.1.0
 _ZNK14FileLabelModel5flagsERK11QModelIndex@Base 2.1.0
 _ZNK14FileLabelModel8rowCountERK11QModelIndex@Base 2.1.0
 _ZNK18BorderShadowEffect10metaObjectEv@Base 2.1.0
 _ZNK18GenericThumbnailer10metaObjectEv@Base 2.1.0
 _ZNK19ConnectServerDialog10metaObjectEv@Base 2.0.0
 _ZNK22LocationBarButtonStyle18drawComplexControlEN6QStyle14ComplexControlEPK19QStyleOptionComplexP8QPainterPK7QWidget@Base 2.2.0
 (optional=templinst)_ZNK4QMapI7QStringP11QToolButtonE6valuesEv@Base 2.2.0
 (optional=templinst)_ZNK4QMapI7QStringS0_E4keysEv@Base 2.1.0
 _ZNK5Peony11FileInfoJob10metaObjectEv@Base 2.0.0
 _ZNK5Peony11FileWatcher10metaObjectEv@Base 2.0.0
 _ZNK5Peony11LocationBar10metaObjectEv@Base 2.0.0
 _ZNK5Peony11SideBarMenu10metaObjectEv@Base 2.0.0
 _ZNK5Peony12PathBarModel10metaObjectEv@Base 2.0.0
 _ZNK5Peony12SideBarModel10headerDataEiN2Qt11OrientationEi@Base 2.0.0
 _ZNK5Peony12SideBarModel10metaObjectEv@Base 2.0.0
 _ZNK5Peony12SideBarModel11columnCountERK11QModelIndex@Base 2.0.0
 _ZNK5Peony12SideBarModel11hasChildrenERK11QModelIndex@Base 2.0.0
 _ZNK5Peony12SideBarModel12canFetchMoreERK11QModelIndex@Base 2.0.0
 _ZNK5Peony12SideBarModel20supportedDropActionsEv@Base 2.0.0
 _ZNK5Peony12SideBarModel4dataERK11QModelIndexi@Base 2.0.0
 _ZNK5Peony12SideBarModel5flagsERK11QModelIndex@Base 2.0.0
 _ZNK5Peony12SideBarModel5indexEiiRK11QModelIndex@Base 2.0.0
 _ZNK5Peony12SideBarModel6parentERK11QModelIndex@Base 2.0.0
 _ZNK5Peony12SideBarModel8rowCountERK11QModelIndex@Base 2.0.0
 _ZNK5Peony12ThumbnailJob10metaObjectEv@Base 2.1.0
 _ZNK5Peony13DirectoryView13IconViewStyle10metaObjectEv@Base 2.0.0
 _ZNK5Peony13DirectoryView13IconViewStyle11drawControlEN6QStyle14ControlElementEPK12QStyleOptionP8QPainterPK7QWidget@Base 2.0.0
 _ZNK5Peony13DirectoryView13IconViewStyle12drawItemTextEP8QPainterRK5QRectiRK8QPalettebRK7QStringNS7_9ColorRoleE@Base 2.0.0
 _ZNK5Peony13DirectoryView13IconViewStyle13drawPrimitiveEN6QStyle16PrimitiveElementEPK12QStyleOptionP8QPainterPK7QWidget@Base 2.1.0
 _ZNK5Peony13DirectoryView13IconViewStyle14drawItemPixmapEP8QPainterRK5QRectiRK7QPixmap@Base 2.0.0
 _ZNK5Peony13DirectoryView13ListViewStyle10metaObjectEv@Base 2.2.0
 _ZNK5Peony13DirectoryView13ListViewStyle13drawPrimitiveEN6QStyle16PrimitiveElementEPK12QStyleOptionP8QPainterPK7QWidget@Base 2.2.0
 _ZNK5Peony13DirectoryView14IconViewEditor10metaObjectEv@Base 2.0.0
 _ZNK5Peony13DirectoryView16IconViewDelegate10metaObjectEv@Base 2.0.0
 _ZNK5Peony13DirectoryView16IconViewDelegate12createEditorEP7QWidgetRK20QStyleOptionViewItemRK11QModelIndex@Base 2.0.0
 _ZNK5Peony13DirectoryView16IconViewDelegate12setModelDataEP7QWidgetP18QAbstractItemModelRK11QModelIndex@Base 2.0.0
 _ZNK5Peony13DirectoryView16IconViewDelegate13selectedBrushEv@Base 2.0.0
 _ZNK5Peony13DirectoryView16IconViewDelegate13setEditorDataEP7QWidgetRK11QModelIndex@Base 2.0.0
 _ZNK5Peony13DirectoryView16IconViewDelegate14setIndexWidgetERK11QModelIndexP7QWidget@Base 2.0.0
 _ZNK5Peony13DirectoryView16IconViewDelegate20updateEditorGeometryEP7QWidgetRK20QStyleOptionViewItemRK11QModelIndex@Base 2.0.0
 _ZNK5Peony13DirectoryView16IconViewDelegate5paintEP8QPainterRK20QStyleOptionViewItemRK11QModelIndex@Base 2.0.0
 _ZNK5Peony13DirectoryView16IconViewDelegate7getViewEv@Base 2.0.0
 _ZNK5Peony13DirectoryView16IconViewDelegate8sizeHintERK20QStyleOptionViewItemRK11QModelIndex@Base 2.0.0
#MISSING: 2.1.0# _ZNK5Peony13DirectoryView17StandardViewProxy10metaObjectEv@Base 2.0.0
 _ZNK5Peony13DirectoryView19IconViewIndexWidget10metaObjectEv@Base 2.0.0
 _ZNK5Peony13DirectoryView8IconView10metaObjectEv@Base 2.0.0
 _ZNK5Peony13DirectoryView8IconView10visualRectERK11QModelIndex@Base 2.0.0
 _ZNK5Peony13DirectoryView8ListView10metaObjectEv@Base 2.0.0
 _ZNK5Peony13DirectoryView9IconView210metaObjectEv@Base 2.0.0
 _ZNK5Peony13DirectoryView9ListView210metaObjectEv@Base 2.0.0
 _ZNK5Peony13FileItemModel10headerDataEiN2Qt11OrientationEi@Base 2.0.0
 _ZNK5Peony13FileItemModel10metaObjectEv@Base 2.0.0
 _ZNK5Peony13FileItemModel11columnCountERK11QModelIndex@Base 2.0.0
 _ZNK5Peony13FileItemModel11hasChildrenERK11QModelIndex@Base 2.0.0
 _ZNK5Peony13FileItemModel12canFetchMoreERK11QModelIndex@Base 2.0.0
 _ZNK5Peony13FileItemModel13itemFromIndexERK11QModelIndex@Base 2.0.0
 _ZNK5Peony13FileItemModel20supportedDropActionsEv@Base 2.0.0
 _ZNK5Peony13FileItemModel4dataERK11QModelIndexi@Base 2.0.0
 _ZNK5Peony13FileItemModel5flagsERK11QModelIndex@Base 2.0.0
 _ZNK5Peony13FileItemModel5indexEiiRK11QModelIndex@Base 2.0.0
 _ZNK5Peony13FileItemModel6parentERK11QModelIndex@Base 2.0.0
 _ZNK5Peony13FileItemModel8mimeDataERK5QListI11QModelIndexE@Base 2.0.0
 _ZNK5Peony13FileItemModel8rowCountERK11QModelIndex@Base 2.0.0
 _ZNK5Peony13FileOperation10metaObjectEv@Base 2.0.0
 _ZNK5Peony13IconContainer10metaObjectEv@Base 2.0.0
 _ZNK5Peony13NavigationBar10metaObjectEv@Base 2.0.0
 _ZNK5Peony13PathCompleter10metaObjectEv@Base 2.0.0
 _ZNK5Peony13PathCompleter13pathFromIndexERK11QModelIndex@Base 2.0.0
 _ZNK5Peony13PathCompleter9splitPathERK7QString@Base 2.0.0
 _ZNK5Peony13PluginManager10metaObjectEv@Base 2.0.0
 _ZNK5Peony13VolumeManager10metaObjectEv@Base 2.0.0
 _ZNK5Peony14ClipboardUtils10metaObjectEv@Base 2.0.0
 _ZNK5Peony14FileEnumerator10metaObjectEv@Base 2.0.0
 _ZNK5Peony14GlobalSettings10metaObjectEv@Base 2.0.0
 _ZNK5Peony14MountOperation10metaObjectEv@Base 2.0.0
 _ZNK5Peony15BookMarkManager10metaObjectEv@Base 2.0.0
 _ZNK5Peony15FMWindowFactory10metaObjectEv@Base 2.1.0
 _ZNK5Peony15FileLauchDialog10metaObjectEv@Base 2.0.0
 _ZNK5Peony15FileLauchDialog8sizeHintEv@Base 2.0.0
 _ZNK5Peony15FilePreviewPage10metaObjectEv@Base 2.0.0
 _ZNK5Peony15IconViewFactory10metaObjectEv@Base 2.0.0
 _ZNK5Peony15ListViewFactory10metaObjectEv@Base 2.0.0
 _ZNK5Peony15SideBarDelegate10metaObjectEv@Base 2.0.0
 _ZNK5Peony15SideBarDelegate5paintEP8QPainterRK20QStyleOptionViewItemRK11QModelIndex@Base 2.0.0
 _ZNK5Peony15SideBarDelegate8sizeHintERK20QStyleOptionViewItemRK11QModelIndex@Base 2.0.0
 _ZNK5Peony16AdvanceSearchBar10metaObjectEv@Base 2.0.0
 _ZNK5Peony16FileLaunchAction10metaObjectEv@Base 2.0.0
 _ZNK5Peony16FileNodeReporter10metaObjectEv@Base 2.0.0
 _ZNK5Peony16IconViewFactory210metaObjectEv@Base 2.0.0
 _ZNK5Peony16ListViewDelegate10metaObjectEv@Base 2.0.0
 _ZNK5Peony16ListViewDelegate12createEditorEP7QWidgetRK20QStyleOptionViewItemRK11QModelIndex@Base 2.0.0
 _ZNK5Peony16ListViewDelegate12setModelDataEP7QWidgetP18QAbstractItemModelRK11QModelIndex@Base 2.0.0
 _ZNK5Peony16ListViewDelegate13setEditorDataEP7QWidgetRK11QModelIndex@Base 2.0.0
 _ZNK5Peony16ListViewDelegate20updateEditorGeometryEP7QWidgetRK20QStyleOptionViewItemRK11QModelIndex@Base 2.0.0
 _ZNK5Peony16ListViewDelegate5paintEP8QPainterRK20QStyleOptionViewItemRK11QModelIndex@Base 2.0.0
 _ZNK5Peony16ListViewFactory210metaObjectEv@Base 2.0.0
 _ZNK5Peony16PropertiesWindow10metaObjectEv@Base 2.0.0
 _ZNK5Peony16SearchVFSManager10metaObjectEv@Base 2.0.0
 _ZNK5Peony16ThumbnailManager10metaObjectEv@Base 2.0.0
#MISSING: 2.1.0# _ZNK5Peony16ViewFactoryModel10metaObjectEv@Base 2.0.0
#MISSING: 2.1.0# _ZNK5Peony16ViewFactoryModel4dataERK11QModelIndexi@Base 2.0.0
#MISSING: 2.1.0# _ZNK5Peony16ViewFactoryModel8rowCountERK11QModelIndex@Base 2.0.0
 _ZNK5Peony17DirectoryViewMenu10metaObjectEv@Base 2.0.0
 _ZNK5Peony17FileCopyOperation10metaObjectEv@Base 2.0.0
 _ZNK5Peony17FileLaunchManager10metaObjectEv@Base 2.0.0
 _ZNK5Peony17FileLinkOperation10metaObjectEv@Base 2.0.0
 _ZNK5Peony17FileMoveOperation10metaObjectEv@Base 2.0.0
 _ZNK5Peony17FileOperationInfo10metaObjectEv@Base 2.0.0
 _ZNK5Peony17MenuPluginManager10metaObjectEv@Base 2.0.0
 _ZNK5Peony17NavigationToolBar10metaObjectEv@Base 2.0.0
 _ZNK5Peony17ViewFactoryModel210metaObjectEv@Base 2.0.0
 _ZNK5Peony17ViewFactoryModel24dataERK11QModelIndexi@Base 2.0.0
 _ZNK5Peony17ViewFactoryModel28rowCountERK11QModelIndex@Base 2.0.0
 _ZNK5Peony18ComplementaryStyle10metaObjectEv@Base 2.0.0
 _ZNK5Peony18ComplementaryStyle13drawPrimitiveEN6QStyle16PrimitiveElementEPK12QStyleOptionP8QPainterPK7QWidget@Base 2.0.0
 _ZNK5Peony18ComplementaryStyle18drawComplexControlEN6QStyle14ComplexControlEPK19QStyleOptionComplexP8QPainterPK7QWidget@Base 2.0.0
 _ZNK5Peony18ComplementaryStyle9styleHintEN6QStyle9StyleHintEPK12QStyleOptionPK7QWidgetP16QStyleHintReturn@Base 2.0.0
 _ZNK5Peony18DefaultPreviewPage10metaObjectEv@Base 2.0.0
 _ZNK5Peony18FileCountOperation10metaObjectEv@Base 2.0.0
 _ZNK5Peony18FileTrashOperation10metaObjectEv@Base 2.0.0
 _ZNK5Peony18IconContainerStyle11drawControlEN6QStyle14ControlElementEPK12QStyleOptionP8QPainterPK7QWidget@Base 2.1.0
 _ZNK5Peony18SearchBarContainer10metaObjectEv@Base 2.1.0
 _ZNK5Peony18SearchBarContainer8sizeHintEv@Base 2.1.0
 _ZNK5Peony19AdvancedLocationBar10metaObjectEv@Base 2.0.0
 _ZNK5Peony19BasicPropertiesPage10metaObjectEv@Base 2.0.0
 _ZNK5Peony19DirectoryViewWidget10metaObjectEv@Base 2.0.0
 _ZNK5Peony19FileDeleteOperation10metaObjectEv@Base 2.0.0
 _ZNK5Peony19FileRenameOperation10metaObjectEv@Base 2.0.0
 _ZNK5Peony19SideBarAbstractItem10metaObjectEv@Base 2.0.0
 _ZNK5Peony19SideBarFavoriteItem10metaObjectEv@Base 2.0.0
 _ZNK5Peony19SideBarPersonalItem10metaObjectEv@Base 2.0.0
 _ZNK5Peony20FileOperationManager10metaObjectEv@Base 2.0.0
 _ZNK5Peony20FileUntrashOperation10metaObjectEv@Base 2.0.0
 _ZNK5Peony20PreviewOptionToolBar10metaObjectEv@Base 2.0.0
 _ZNK5Peony20PreviewPageContainer10metaObjectEv@Base 2.0.0
 _ZNK5Peony20SideBarSeparatorItem10metaObjectEv@Base 2.0.0
 _ZNK5Peony21SideBarFileSystemItem10metaObjectEv@Base 2.0.0
 _ZNK5Peony22ComputerPropertiesPage10metaObjectEv@Base 2.0.0
 _ZNK5Peony22DirectoryViewContainer10metaObjectEv@Base 2.0.0
 _ZNK5Peony23CreateTemplateOperation10metaObjectEv@Base 2.0.0
 _ZNK5Peony23DirectoryViewProxyIface10metaObjectEv@Base 2.0.0
 _ZNK5Peony23PropertiesWindowPrivate10metaObjectEv@Base 2.0.0
 _ZNK5Peony24CreateLinkInternalPlugin10metaObjectEv@Base 2.0.0
 _ZNK5Peony24FileOperationErrorDialog10metaObjectEv@Base 2.0.0
 _ZNK5Peony24FileOperationPreparePage10metaObjectEv@Base 2.0.0
 _ZNK5Peony25DefaultPreviewPageFactory10metaObjectEv@Base 2.0.0
 _ZNK5Peony25FileOperationProgressPage10metaObjectEv@Base 2.0.0
 _ZNK5Peony25FileOperationRollbackPage10metaObjectEv@Base 2.0.0
 _ZNK5Peony25PermissionsPropertiesPage10metaObjectEv@Base 2.0.0
 _ZNK5Peony25PreviewPageFactoryManager10metaObjectEv@Base 2.0.0
 _ZNK5Peony26BasicPropertiesPageFactory10metaObjectEv@Base 2.0.0
#MISSING: 2.1.0# _ZNK5Peony26ViewFactorySortFilterModel10metaObjectEv@Base 2.0.0
#MISSING: 2.1.0# _ZNK5Peony26ViewFactorySortFilterModel16filterAcceptsRowEiRK11QModelIndex@Base 2.0.0
#MISSING: 2.1.0# _ZNK5Peony26ViewFactorySortFilterModel8lessThanERK11QModelIndexS3_@Base 2.0.0
#MISSING: 2.1.0# _ZNK5Peony27DirectoryViewFactoryManager10metaObjectEv@Base 2.0.0
 _ZNK5Peony27FileLabelInternalMenuPlugin10metaObjectEv@Base 2.1.0
 _ZNK5Peony27FileOperationProgressWizard10metaObjectEv@Base 2.0.0
 _ZNK5Peony27SideBarProxyFilterSortModel10metaObjectEv@Base 2.0.0
 _ZNK5Peony27SideBarProxyFilterSortModel16filterAcceptsRowEiRK11QModelIndex@Base 2.0.0
 _ZNK5Peony27SideBarProxyFilterSortModel8lessThanERK11QModelIndexS3_@Base 2.0.0
 _ZNK5Peony27ToolBarExtensionActionIface10metaObjectEv@Base 2.0.0
 _ZNK5Peony27ViewFactorySortFilterModel210metaObjectEv@Base 2.0.0
 _ZNK5Peony27ViewFactorySortFilterModel216filterAcceptsRowEiRK11QModelIndex@Base 2.0.0
 _ZNK5Peony27ViewFactorySortFilterModel28lessThanERK11QModelIndexS3_@Base 2.0.0
 _ZNK5Peony28DirectoryViewFactoryManager210metaObjectEv@Base 2.0.0
 _ZNK5Peony28FileItemProxyFilterSortModel10metaObjectEv@Base 2.0.0
 _ZNK5Peony28FileItemProxyFilterSortModel16filterAcceptsRowEiRK11QModelIndex@Base 2.0.0
 _ZNK5Peony28FileItemProxyFilterSortModel16startWithChineseERK7QString@Base 2.0.0
 _ZNK5Peony28FileItemProxyFilterSortModel19checkFileSizeFilterEy@Base 2.0.0
 _ZNK5Peony28FileItemProxyFilterSortModel19checkFileTypeFilterE7QString@Base 2.0.0
#MISSING: 2.1.0# _ZNK5Peony28FileItemProxyFilterSortModel25checkFileModifyTimeFilterE7QString@Base 2.0.0
 _ZNK5Peony28FileItemProxyFilterSortModel25checkFileModifyTimeFilterEy@Base 2.1.0
 _ZNK5Peony28FileItemProxyFilterSortModel8lessThanERK11QModelIndexS3_@Base 2.0.0
 _ZNK5Peony28RecentAndTrashPropertiesPage10metaObjectEv@Base 2.0.0
 _ZNK5Peony29ComputerPropertiesPageFactory10metaObjectEv@Base 2.0.0
 _ZNK5Peony29PropertiesWindowPluginManager10metaObjectEv@Base 2.0.0
 _ZNK5Peony30FileOperationAfterProgressPage10metaObjectEv@Base 2.0.0
 _ZNK5Peony32PermissionsPropertiesPageFactory10metaObjectEv@Base 2.0.0
 _ZNK5Peony35RecentAndTrashPropertiesPageFactory10metaObjectEv@Base 2.0.0
 _ZNK5Peony7SideBar10metaObjectEv@Base 2.0.0
 _ZNK5Peony7SideBar10visualRectERK11QModelIndex@Base 2.0.0
 _ZNK5Peony7SideBar8sizeHintEv@Base 2.0.0
 _ZNK5Peony7TabPage10metaObjectEv@Base 2.0.0
 _ZNK5Peony7ToolBar10metaObjectEv@Base 2.0.0
 _ZNK5Peony8FMWindow10metaObjectEv@Base 2.0.0
 _ZNK5Peony8FMWindow8sizeHintEv@Base 2.0.0
 _ZNK5Peony8FileInfo10metaObjectEv@Base 2.0.0
 _ZNK5Peony8FileItem10metaObjectEv@Base 2.0.0
 _ZNK5Peony8PathEdit10metaObjectEv@Base 2.0.0
 _ZNK5Peony8TextEdit10metaObjectEv@Base 2.0.0
 _ZNK5Peony9SearchBar10metaObjectEv@Base 2.0.0
 _ZNK5Peony9StatusBar10metaObjectEv@Base 2.0.0
 (optional=templinst)_ZNK5QHashI7QString11QStringListE8findNodeERKS0_Pj@Base 2.0.0
 (optional=templinst)_ZNK5QHashI7QString11QStringListE8findNodeERKS0_j@Base 2.0.0
 (optional=templinst)_ZNK5QHashI7QString5QIconE8findNodeERKS0_Pj@Base 2.0.0
 (optional=templinst)_ZNK5QHashI7QString5QIconE8findNodeERKS0_j@Base 2.0.0
 (optional=templinst)_ZNK5QHashI7QString8QVariantE8findNodeERKS0_Pj@Base 2.0.0
 (optional=templinst)_ZNK5QHashI7QString8QVariantE8findNodeERKS0_j@Base 2.0.0
 (optional=templinst)_ZNK5QHashI7QStringPN5Peony15PluginInterfaceEE8findNodeERKS0_j@Base 2.0.0
 (optional=templinst)_ZNK5QHashI7QStringPN5Peony19MenuPluginInterfaceEE4keysEv@Base 2.0.0
 (optional=templinst)_ZNK5QHashI7QStringPN5Peony19MenuPluginInterfaceEE8findNodeERKS0_j@Base 2.0.0
#MISSING: 2.1.0# (optional=templinst)_ZNK5QHashI7QStringPN5Peony24DirectoryViewPluginIfaceEE8findNodeERKS0_j@Base 2.0.0
 (optional=templinst)_ZNK5QHashI7QStringPN5Peony25DirectoryViewPluginIface2EE4keysEv@Base 2.1.0
 (optional=templinst)_ZNK5QHashI7QStringPN5Peony25DirectoryViewPluginIface2EE6valuesEv@Base 2.1.0
 (optional=templinst)_ZNK5QHashI7QStringPN5Peony25DirectoryViewPluginIface2EE8findNodeERKS0_Pj@Base 2.1.0
 (optional=templinst)_ZNK5QHashI7QStringPN5Peony25DirectoryViewPluginIface2EE8findNodeERKS0_j@Base 2.0.0
 (optional=templinst)_ZNK5QHashI7QStringPN5Peony34PropertiesWindowTabPagePluginIfaceEE8findNodeERKS0_j@Base 2.0.0
 (optional=templinst)_ZNK5QHashI7QStringS0_E8findNodeERKS0_Pj@Base 2.0.0
 (optional=templinst)_ZNK5QHashI7QStringS0_E8findNodeERKS0_j@Base 2.0.0
 (optional=templinst)_ZNK5QHashI7QStringSt10shared_ptrIN5Peony8FileInfoEEE4keysEv@Base 2.0.0
 (optional=templinst)_ZNK5QHashI7QStringSt10shared_ptrIN5Peony8FileInfoEEE6valuesEv@Base 2.0.0
 (optional=templinst)_ZNK5QHashI7QStringSt10shared_ptrIN5Peony8FileInfoEEE8findNodeERKS0_Pj@Base 2.0.0
 (optional=templinst)_ZNK5QHashI7QStringSt10shared_ptrIN5Peony8FileInfoEEE8findNodeERKS0_j@Base 2.0.0
 (optional=templinst)_ZNK5QHashIP15QListWidgetItemPN5Peony16FileLaunchActionEE8findNodeERKS1_Pj@Base 2.0.0
#MISSING: 2.1.0# (optional=templinst)_ZNK5QHashIi5QPairIi7QStringEE6valuesERKi@Base 2.0.0
 (optional=templinst)_ZNK5QHashIi5QPairIi7QStringEE8findNodeERKiPj@Base 2.0.0
 (optional=templinst)_ZNK5QHashIiN5Peony13FileOperation12ResponseTypeEE8findNodeERKiPj@Base 2.0.0
#MISSING: 2.1.0# (optional=templinst)_ZNK5QListI7QStringE7indexOfERKS0_i@Base 2.0.0
 (optional=templinst)_ZNK5QListIP13FileLabelItemE7indexOfERKS1_i@Base 2.1.0
 (optional=templinst)_ZNK5QListIP7QActionE7indexOfERKS1_i@Base 2.0.0
 (optional=templinst|arch= !s390x)_ZNK7QVectorIPN5Peony19SideBarAbstractItemEE7indexOfERKS2_i@Base 2.0.0
 (optional=templinst|arch= !s390x)_ZNK7QVectorIPN5Peony8FileItemEE7indexOfERKS2_i@Base 2.0.0
 (optional=templinst)_ZNK8QMapDataI7QString8QVariantE8findNodeERKS0_@Base 2.0.0
 (optional=templinst)_ZNK8QMapDataI7QStringPN5Peony22PreviewPagePluginIfaceEE8findNodeERKS0_@Base 2.0.0
 (optional=templinst)_ZNK8QMapNodeI7QString8QVariantE4copyEP8QMapDataIS0_S1_E@Base 2.0.0
 (optional=templinst)_ZNK8QMapNodeI7QStringP11QToolButtonE4copyEP8QMapDataIS0_S2_E@Base 2.2.0
 (optional=templinst)_ZNK8QMapNodeI7QStringPN5Peony22PreviewPagePluginIfaceEE4copyEP8QMapDataIS0_S3_E@Base 2.0.0
 (optional=templinst)_ZNK8QMapNodeI7QStringS0_E4copyEP8QMapDataIS0_S0_E@Base 2.1.0
 (optional=templinst)_ZNK8QMapNodeIi7QStringE4copyEP8QMapDataIiS0_E@Base 2.0.0
 (arch=armel)_ZNK9__gnu_cxx24__concurrence_lock_error4whatEv@Base 2.0.1
 (arch=armel)_ZNK9__gnu_cxx26__concurrence_unlock_error4whatEv@Base 2.0.1
 (optional=templinst|arch=armel)_ZNSt15_Sp_counted_ptrIDnLN9__gnu_cxx12_Lock_policyE1EE10_M_disposeEv@Base 2.0.1
 (optional=templinst|arch=amd64)_ZNSt15_Sp_counted_ptrIDnLN9__gnu_cxx12_Lock_policyE2EE10_M_disposeEv@Base 2.0.0
 (optional=templinst|arch=armel)_ZNSt16_Sp_counted_baseILN9__gnu_cxx12_Lock_policyE1EE10_M_destroyEv@Base 2.0.1
 (optional=templinst|arch=armel)_ZNSt16_Sp_counted_baseILN9__gnu_cxx12_Lock_policyE1EE10_M_releaseEv@Base 2.0.1
 (optional=templinst|arch=amd64)_ZNSt16_Sp_counted_baseILN9__gnu_cxx12_Lock_policyE2EE10_M_destroyEv@Base 2.0.0
 (optional=templinst|arch=amd64)_ZNSt16_Sp_counted_baseILN9__gnu_cxx12_Lock_policyE2EE10_M_releaseEv@Base 2.0.0
 (optional=templinst|arch=armel)_ZNSt23_Sp_counted_ptr_inplaceIN5Peony11FileWatcherESaIS1_ELN9__gnu_cxx12_Lock_policyE1EE10_M_destroyEv@Base 2.0.1
 (optional=templinst|arch=armel)_ZNSt23_Sp_counted_ptr_inplaceIN5Peony11FileWatcherESaIS1_ELN9__gnu_cxx12_Lock_policyE1EE10_M_disposeEv@Base 2.0.1
 (optional=templinst|arch=armel)_ZNSt23_Sp_counted_ptr_inplaceIN5Peony11FileWatcherESaIS1_ELN9__gnu_cxx12_Lock_policyE1EE14_M_get_deleterERKSt9type_info@Base 2.0.1
 (optional=templinst|arch=armel)_ZNSt23_Sp_counted_ptr_inplaceIN5Peony11FileWatcherESaIS1_ELN9__gnu_cxx12_Lock_policyE1EED0Ev@Base 2.0.1
 (optional=templinst|arch=armel)_ZNSt23_Sp_counted_ptr_inplaceIN5Peony11FileWatcherESaIS1_ELN9__gnu_cxx12_Lock_policyE1EED1Ev@Base 2.0.1
 (optional=templinst|arch=armel)_ZNSt23_Sp_counted_ptr_inplaceIN5Peony11FileWatcherESaIS1_ELN9__gnu_cxx12_Lock_policyE1EED2Ev@Base 2.0.1
 (optional=templinst|arch=amd64)_ZNSt23_Sp_counted_ptr_inplaceIN5Peony11FileWatcherESaIS1_ELN9__gnu_cxx12_Lock_policyE2EE10_M_destroyEv@Base 2.0.0
 (optional=templinst|arch=amd64)_ZNSt23_Sp_counted_ptr_inplaceIN5Peony11FileWatcherESaIS1_ELN9__gnu_cxx12_Lock_policyE2EE10_M_disposeEv@Base 2.0.0
 (optional=templinst|arch=amd64)_ZNSt23_Sp_counted_ptr_inplaceIN5Peony11FileWatcherESaIS1_ELN9__gnu_cxx12_Lock_policyE2EE14_M_get_deleterERKSt9type_info@Base 2.0.0
 (optional=templinst|arch=amd64)_ZNSt23_Sp_counted_ptr_inplaceIN5Peony11FileWatcherESaIS1_ELN9__gnu_cxx12_Lock_policyE2EED0Ev@Base 2.0.0
 (optional=templinst|arch=amd64)_ZNSt23_Sp_counted_ptr_inplaceIN5Peony11FileWatcherESaIS1_ELN9__gnu_cxx12_Lock_policyE2EED1Ev@Base 2.0.0
 (optional=templinst|arch=amd64)_ZNSt23_Sp_counted_ptr_inplaceIN5Peony11FileWatcherESaIS1_ELN9__gnu_cxx12_Lock_policyE2EED2Ev@Base 2.0.0
 (optional=templinst|arch=armel)_ZNSt23_Sp_counted_ptr_inplaceIN5Peony12FileMetaInfoESaIS1_ELN9__gnu_cxx12_Lock_policyE1EE10_M_destroyEv@Base 2.0.1
 (optional=templinst|arch=armel)_ZNSt23_Sp_counted_ptr_inplaceIN5Peony12FileMetaInfoESaIS1_ELN9__gnu_cxx12_Lock_policyE1EE10_M_disposeEv@Base 2.0.1
 (optional=templinst|arch=armel)_ZNSt23_Sp_counted_ptr_inplaceIN5Peony12FileMetaInfoESaIS1_ELN9__gnu_cxx12_Lock_policyE1EE14_M_get_deleterERKSt9type_info@Base 2.0.1
 (optional=templinst|arch=armel)_ZNSt23_Sp_counted_ptr_inplaceIN5Peony12FileMetaInfoESaIS1_ELN9__gnu_cxx12_Lock_policyE1EED0Ev@Base 2.0.1
 (optional=templinst|arch=armel)_ZNSt23_Sp_counted_ptr_inplaceIN5Peony12FileMetaInfoESaIS1_ELN9__gnu_cxx12_Lock_policyE1EED1Ev@Base 2.0.1
 (optional=templinst|arch=armel)_ZNSt23_Sp_counted_ptr_inplaceIN5Peony12FileMetaInfoESaIS1_ELN9__gnu_cxx12_Lock_policyE1EED2Ev@Base 2.0.1
 (optional=templinst|arch=amd64)_ZNSt23_Sp_counted_ptr_inplaceIN5Peony12FileMetaInfoESaIS1_ELN9__gnu_cxx12_Lock_policyE2EE10_M_destroyEv@Base 2.0.0
 (optional=templinst|arch=amd64)_ZNSt23_Sp_counted_ptr_inplaceIN5Peony12FileMetaInfoESaIS1_ELN9__gnu_cxx12_Lock_policyE2EE10_M_disposeEv@Base 2.0.0
 (optional=templinst|arch=amd64)_ZNSt23_Sp_counted_ptr_inplaceIN5Peony12FileMetaInfoESaIS1_ELN9__gnu_cxx12_Lock_policyE2EE14_M_get_deleterERKSt9type_info@Base 2.0.0
 (optional=templinst|arch=amd64)_ZNSt23_Sp_counted_ptr_inplaceIN5Peony12FileMetaInfoESaIS1_ELN9__gnu_cxx12_Lock_policyE2EED0Ev@Base 2.0.0
 (optional=templinst|arch=amd64)_ZNSt23_Sp_counted_ptr_inplaceIN5Peony12FileMetaInfoESaIS1_ELN9__gnu_cxx12_Lock_policyE2EED1Ev@Base 2.0.0
 (optional=templinst|arch=amd64)_ZNSt23_Sp_counted_ptr_inplaceIN5Peony12FileMetaInfoESaIS1_ELN9__gnu_cxx12_Lock_policyE2EED2Ev@Base 2.0.0
 (optional=templinst|arch=armel)_ZNSt23_Sp_counted_ptr_inplaceIN5Peony13GErrorWrapperESaIS1_ELN9__gnu_cxx12_Lock_policyE1EE10_M_destroyEv@Base 2.0.1
 (optional=templinst|arch=armel)_ZNSt23_Sp_counted_ptr_inplaceIN5Peony13GErrorWrapperESaIS1_ELN9__gnu_cxx12_Lock_policyE1EE10_M_disposeEv@Base 2.0.1
 (optional=templinst|arch=armel)_ZNSt23_Sp_counted_ptr_inplaceIN5Peony13GErrorWrapperESaIS1_ELN9__gnu_cxx12_Lock_policyE1EE14_M_get_deleterERKSt9type_info@Base 2.0.1
 (optional=templinst|arch=armel)_ZNSt23_Sp_counted_ptr_inplaceIN5Peony13GErrorWrapperESaIS1_ELN9__gnu_cxx12_Lock_policyE1EED0Ev@Base 2.0.1
 (optional=templinst|arch=armel)_ZNSt23_Sp_counted_ptr_inplaceIN5Peony13GErrorWrapperESaIS1_ELN9__gnu_cxx12_Lock_policyE1EED1Ev@Base 2.0.1
 (optional=templinst|arch=armel)_ZNSt23_Sp_counted_ptr_inplaceIN5Peony13GErrorWrapperESaIS1_ELN9__gnu_cxx12_Lock_policyE1EED2Ev@Base 2.0.1
 (optional=templinst|arch=amd64)_ZNSt23_Sp_counted_ptr_inplaceIN5Peony13GErrorWrapperESaIS1_ELN9__gnu_cxx12_Lock_policyE2EE10_M_destroyEv@Base 2.0.0
 (optional=templinst|arch=amd64)_ZNSt23_Sp_counted_ptr_inplaceIN5Peony13GErrorWrapperESaIS1_ELN9__gnu_cxx12_Lock_policyE2EE10_M_disposeEv@Base 2.0.0
 (optional=templinst|arch=amd64)_ZNSt23_Sp_counted_ptr_inplaceIN5Peony13GErrorWrapperESaIS1_ELN9__gnu_cxx12_Lock_policyE2EE14_M_get_deleterERKSt9type_info@Base 2.0.0
 (optional=templinst|arch=amd64)_ZNSt23_Sp_counted_ptr_inplaceIN5Peony13GErrorWrapperESaIS1_ELN9__gnu_cxx12_Lock_policyE2EED0Ev@Base 2.0.0
 (optional=templinst|arch=amd64)_ZNSt23_Sp_counted_ptr_inplaceIN5Peony13GErrorWrapperESaIS1_ELN9__gnu_cxx12_Lock_policyE2EED1Ev@Base 2.0.0
 (optional=templinst|arch=amd64)_ZNSt23_Sp_counted_ptr_inplaceIN5Peony13GErrorWrapperESaIS1_ELN9__gnu_cxx12_Lock_policyE2EED2Ev@Base 2.0.0
 (optional=templinst|arch=armel)_ZNSt23_Sp_counted_ptr_inplaceIN5Peony14FileEnumeratorESaIS1_ELN9__gnu_cxx12_Lock_policyE1EE10_M_destroyEv@Base 2.0.1
 (optional=templinst|arch=armel)_ZNSt23_Sp_counted_ptr_inplaceIN5Peony14FileEnumeratorESaIS1_ELN9__gnu_cxx12_Lock_policyE1EE10_M_disposeEv@Base 2.0.1
 (optional=templinst|arch=armel)_ZNSt23_Sp_counted_ptr_inplaceIN5Peony14FileEnumeratorESaIS1_ELN9__gnu_cxx12_Lock_policyE1EE14_M_get_deleterERKSt9type_info@Base 2.0.1
 (optional=templinst|arch=armel)_ZNSt23_Sp_counted_ptr_inplaceIN5Peony14FileEnumeratorESaIS1_ELN9__gnu_cxx12_Lock_policyE1EED0Ev@Base 2.0.1
 (optional=templinst|arch=armel)_ZNSt23_Sp_counted_ptr_inplaceIN5Peony14FileEnumeratorESaIS1_ELN9__gnu_cxx12_Lock_policyE1EED1Ev@Base 2.0.1
 (optional=templinst|arch=armel)_ZNSt23_Sp_counted_ptr_inplaceIN5Peony14FileEnumeratorESaIS1_ELN9__gnu_cxx12_Lock_policyE1EED2Ev@Base 2.0.1
 (optional=templinst|arch=amd64)_ZNSt23_Sp_counted_ptr_inplaceIN5Peony14FileEnumeratorESaIS1_ELN9__gnu_cxx12_Lock_policyE2EE10_M_destroyEv@Base 2.0.0
 (optional=templinst|arch=amd64)_ZNSt23_Sp_counted_ptr_inplaceIN5Peony14FileEnumeratorESaIS1_ELN9__gnu_cxx12_Lock_policyE2EE10_M_disposeEv@Base 2.0.0
 (optional=templinst|arch=amd64)_ZNSt23_Sp_counted_ptr_inplaceIN5Peony14FileEnumeratorESaIS1_ELN9__gnu_cxx12_Lock_policyE2EE14_M_get_deleterERKSt9type_info@Base 2.0.0
 (optional=templinst|arch=amd64)_ZNSt23_Sp_counted_ptr_inplaceIN5Peony14FileEnumeratorESaIS1_ELN9__gnu_cxx12_Lock_policyE2EED0Ev@Base 2.0.0
 (optional=templinst|arch=amd64)_ZNSt23_Sp_counted_ptr_inplaceIN5Peony14FileEnumeratorESaIS1_ELN9__gnu_cxx12_Lock_policyE2EED1Ev@Base 2.0.0
 (optional=templinst|arch=amd64)_ZNSt23_Sp_counted_ptr_inplaceIN5Peony14FileEnumeratorESaIS1_ELN9__gnu_cxx12_Lock_policyE2EED2Ev@Base 2.0.0
 (optional=templinst|arch=armel)_ZNSt23_Sp_counted_ptr_inplaceIN5Peony15GObjectTemplateI10_GFileInfoEESaIS3_ELN9__gnu_cxx12_Lock_policyE1EE10_M_destroyEv@Base 2.0.1
 (optional=templinst|arch=armel)_ZNSt23_Sp_counted_ptr_inplaceIN5Peony15GObjectTemplateI10_GFileInfoEESaIS3_ELN9__gnu_cxx12_Lock_policyE1EE10_M_disposeEv@Base 2.0.1
 (optional=templinst|arch=armel)_ZNSt23_Sp_counted_ptr_inplaceIN5Peony15GObjectTemplateI10_GFileInfoEESaIS3_ELN9__gnu_cxx12_Lock_policyE1EE14_M_get_deleterERKSt9type_info@Base 2.0.1
 (optional=templinst|arch=armel)_ZNSt23_Sp_counted_ptr_inplaceIN5Peony15GObjectTemplateI10_GFileInfoEESaIS3_ELN9__gnu_cxx12_Lock_policyE1EED0Ev@Base 2.0.1
 (optional=templinst|arch=armel)_ZNSt23_Sp_counted_ptr_inplaceIN5Peony15GObjectTemplateI10_GFileInfoEESaIS3_ELN9__gnu_cxx12_Lock_policyE1EED1Ev@Base 2.0.1
 (optional=templinst|arch=armel)_ZNSt23_Sp_counted_ptr_inplaceIN5Peony15GObjectTemplateI10_GFileInfoEESaIS3_ELN9__gnu_cxx12_Lock_policyE1EED2Ev@Base 2.0.1
 (optional=templinst|arch=amd64)_ZNSt23_Sp_counted_ptr_inplaceIN5Peony15GObjectTemplateI10_GFileInfoEESaIS3_ELN9__gnu_cxx12_Lock_policyE2EE10_M_destroyEv@Base 2.0.0
 (optional=templinst|arch=amd64)_ZNSt23_Sp_counted_ptr_inplaceIN5Peony15GObjectTemplateI10_GFileInfoEESaIS3_ELN9__gnu_cxx12_Lock_policyE2EE10_M_disposeEv@Base 2.0.0
 (optional=templinst|arch=amd64)_ZNSt23_Sp_counted_ptr_inplaceIN5Peony15GObjectTemplateI10_GFileInfoEESaIS3_ELN9__gnu_cxx12_Lock_policyE2EE14_M_get_deleterERKSt9type_info@Base 2.0.0
 (optional=templinst|arch=amd64)_ZNSt23_Sp_counted_ptr_inplaceIN5Peony15GObjectTemplateI10_GFileInfoEESaIS3_ELN9__gnu_cxx12_Lock_policyE2EED0Ev@Base 2.0.0
 (optional=templinst|arch=amd64)_ZNSt23_Sp_counted_ptr_inplaceIN5Peony15GObjectTemplateI10_GFileInfoEESaIS3_ELN9__gnu_cxx12_Lock_policyE2EED1Ev@Base 2.0.0
 (optional=templinst|arch=amd64)_ZNSt23_Sp_counted_ptr_inplaceIN5Peony15GObjectTemplateI10_GFileInfoEESaIS3_ELN9__gnu_cxx12_Lock_policyE2EED2Ev@Base 2.0.0
 (optional=templinst|arch=armel)_ZNSt23_Sp_counted_ptr_inplaceIN5Peony15GObjectTemplateI12_GThemedIconEESaIS3_ELN9__gnu_cxx12_Lock_policyE1EE10_M_destroyEv@Base 2.0.1
 (optional=templinst|arch=armel)_ZNSt23_Sp_counted_ptr_inplaceIN5Peony15GObjectTemplateI12_GThemedIconEESaIS3_ELN9__gnu_cxx12_Lock_policyE1EE10_M_disposeEv@Base 2.0.1
 (optional=templinst|arch=armel)_ZNSt23_Sp_counted_ptr_inplaceIN5Peony15GObjectTemplateI12_GThemedIconEESaIS3_ELN9__gnu_cxx12_Lock_policyE1EE14_M_get_deleterERKSt9type_info@Base 2.0.1
 (optional=templinst|arch=armel)_ZNSt23_Sp_counted_ptr_inplaceIN5Peony15GObjectTemplateI12_GThemedIconEESaIS3_ELN9__gnu_cxx12_Lock_policyE1EED0Ev@Base 2.0.1
 (optional=templinst|arch=armel)_ZNSt23_Sp_counted_ptr_inplaceIN5Peony15GObjectTemplateI12_GThemedIconEESaIS3_ELN9__gnu_cxx12_Lock_policyE1EED1Ev@Base 2.0.1
 (optional=templinst|arch=armel)_ZNSt23_Sp_counted_ptr_inplaceIN5Peony15GObjectTemplateI12_GThemedIconEESaIS3_ELN9__gnu_cxx12_Lock_policyE1EED2Ev@Base 2.0.1
 (optional=templinst|arch=amd64)_ZNSt23_Sp_counted_ptr_inplaceIN5Peony15GObjectTemplateI12_GThemedIconEESaIS3_ELN9__gnu_cxx12_Lock_policyE2EE10_M_destroyEv@Base 2.0.0
 (optional=templinst|arch=amd64)_ZNSt23_Sp_counted_ptr_inplaceIN5Peony15GObjectTemplateI12_GThemedIconEESaIS3_ELN9__gnu_cxx12_Lock_policyE2EE10_M_disposeEv@Base 2.0.0
 (optional=templinst|arch=amd64)_ZNSt23_Sp_counted_ptr_inplaceIN5Peony15GObjectTemplateI12_GThemedIconEESaIS3_ELN9__gnu_cxx12_Lock_policyE2EE14_M_get_deleterERKSt9type_info@Base 2.0.0
 (optional=templinst|arch=amd64)_ZNSt23_Sp_counted_ptr_inplaceIN5Peony15GObjectTemplateI12_GThemedIconEESaIS3_ELN9__gnu_cxx12_Lock_policyE2EED0Ev@Base 2.0.0
 (optional=templinst|arch=amd64)_ZNSt23_Sp_counted_ptr_inplaceIN5Peony15GObjectTemplateI12_GThemedIconEESaIS3_ELN9__gnu_cxx12_Lock_policyE2EED1Ev@Base 2.0.0
 (optional=templinst|arch=amd64)_ZNSt23_Sp_counted_ptr_inplaceIN5Peony15GObjectTemplateI12_GThemedIconEESaIS3_ELN9__gnu_cxx12_Lock_policyE2EED2Ev@Base 2.0.0
 (optional=templinst|arch=armel)_ZNSt23_Sp_counted_ptr_inplaceIN5Peony15GObjectTemplateI13_GCancellableEESaIS3_ELN9__gnu_cxx12_Lock_policyE1EE10_M_destroyEv@Base 2.0.1
 (optional=templinst|arch=armel)_ZNSt23_Sp_counted_ptr_inplaceIN5Peony15GObjectTemplateI13_GCancellableEESaIS3_ELN9__gnu_cxx12_Lock_policyE1EE10_M_disposeEv@Base 2.0.1
 (optional=templinst|arch=armel)_ZNSt23_Sp_counted_ptr_inplaceIN5Peony15GObjectTemplateI13_GCancellableEESaIS3_ELN9__gnu_cxx12_Lock_policyE1EE14_M_get_deleterERKSt9type_info@Base 2.0.1
 (optional=templinst|arch=armel)_ZNSt23_Sp_counted_ptr_inplaceIN5Peony15GObjectTemplateI13_GCancellableEESaIS3_ELN9__gnu_cxx12_Lock_policyE1EED0Ev@Base 2.0.1
 (optional=templinst|arch=armel)_ZNSt23_Sp_counted_ptr_inplaceIN5Peony15GObjectTemplateI13_GCancellableEESaIS3_ELN9__gnu_cxx12_Lock_policyE1EED1Ev@Base 2.0.1
 (optional=templinst|arch=armel)_ZNSt23_Sp_counted_ptr_inplaceIN5Peony15GObjectTemplateI13_GCancellableEESaIS3_ELN9__gnu_cxx12_Lock_policyE1EED2Ev@Base 2.0.1
 (optional=templinst|arch=amd64)_ZNSt23_Sp_counted_ptr_inplaceIN5Peony15GObjectTemplateI13_GCancellableEESaIS3_ELN9__gnu_cxx12_Lock_policyE2EE10_M_destroyEv@Base 2.0.0
 (optional=templinst|arch=amd64)_ZNSt23_Sp_counted_ptr_inplaceIN5Peony15GObjectTemplateI13_GCancellableEESaIS3_ELN9__gnu_cxx12_Lock_policyE2EE10_M_disposeEv@Base 2.0.0
 (optional=templinst|arch=amd64)_ZNSt23_Sp_counted_ptr_inplaceIN5Peony15GObjectTemplateI13_GCancellableEESaIS3_ELN9__gnu_cxx12_Lock_policyE2EE14_M_get_deleterERKSt9type_info@Base 2.0.0
 (optional=templinst|arch=amd64)_ZNSt23_Sp_counted_ptr_inplaceIN5Peony15GObjectTemplateI13_GCancellableEESaIS3_ELN9__gnu_cxx12_Lock_policyE2EED0Ev@Base 2.0.0
 (optional=templinst|arch=amd64)_ZNSt23_Sp_counted_ptr_inplaceIN5Peony15GObjectTemplateI13_GCancellableEESaIS3_ELN9__gnu_cxx12_Lock_policyE2EED1Ev@Base 2.0.0
 (optional=templinst|arch=amd64)_ZNSt23_Sp_counted_ptr_inplaceIN5Peony15GObjectTemplateI13_GCancellableEESaIS3_ELN9__gnu_cxx12_Lock_policyE2EED2Ev@Base 2.0.0
 (optional=templinst|arch=armel)_ZNSt23_Sp_counted_ptr_inplaceIN5Peony15GObjectTemplateI13_GFileMonitorEESaIS3_ELN9__gnu_cxx12_Lock_policyE1EE10_M_destroyEv@Base 2.0.1
 (optional=templinst|arch=armel)_ZNSt23_Sp_counted_ptr_inplaceIN5Peony15GObjectTemplateI13_GFileMonitorEESaIS3_ELN9__gnu_cxx12_Lock_policyE1EE10_M_disposeEv@Base 2.0.1
 (optional=templinst|arch=armel)_ZNSt23_Sp_counted_ptr_inplaceIN5Peony15GObjectTemplateI13_GFileMonitorEESaIS3_ELN9__gnu_cxx12_Lock_policyE1EE14_M_get_deleterERKSt9type_info@Base 2.0.1
 (optional=templinst|arch=armel)_ZNSt23_Sp_counted_ptr_inplaceIN5Peony15GObjectTemplateI13_GFileMonitorEESaIS3_ELN9__gnu_cxx12_Lock_policyE1EED0Ev@Base 2.0.1
 (optional=templinst|arch=armel)_ZNSt23_Sp_counted_ptr_inplaceIN5Peony15GObjectTemplateI13_GFileMonitorEESaIS3_ELN9__gnu_cxx12_Lock_policyE1EED1Ev@Base 2.0.1
 (optional=templinst|arch=armel)_ZNSt23_Sp_counted_ptr_inplaceIN5Peony15GObjectTemplateI13_GFileMonitorEESaIS3_ELN9__gnu_cxx12_Lock_policyE1EED2Ev@Base 2.0.1
 (optional=templinst|arch=amd64)_ZNSt23_Sp_counted_ptr_inplaceIN5Peony15GObjectTemplateI13_GFileMonitorEESaIS3_ELN9__gnu_cxx12_Lock_policyE2EE10_M_destroyEv@Base 2.0.0
 (optional=templinst|arch=amd64)_ZNSt23_Sp_counted_ptr_inplaceIN5Peony15GObjectTemplateI13_GFileMonitorEESaIS3_ELN9__gnu_cxx12_Lock_policyE2EE10_M_disposeEv@Base 2.0.0
 (optional=templinst|arch=amd64)_ZNSt23_Sp_counted_ptr_inplaceIN5Peony15GObjectTemplateI13_GFileMonitorEESaIS3_ELN9__gnu_cxx12_Lock_policyE2EE14_M_get_deleterERKSt9type_info@Base 2.0.0
 (optional=templinst|arch=amd64)_ZNSt23_Sp_counted_ptr_inplaceIN5Peony15GObjectTemplateI13_GFileMonitorEESaIS3_ELN9__gnu_cxx12_Lock_policyE2EED0Ev@Base 2.0.0
 (optional=templinst|arch=amd64)_ZNSt23_Sp_counted_ptr_inplaceIN5Peony15GObjectTemplateI13_GFileMonitorEESaIS3_ELN9__gnu_cxx12_Lock_policyE2EED1Ev@Base 2.0.0
 (optional=templinst|arch=amd64)_ZNSt23_Sp_counted_ptr_inplaceIN5Peony15GObjectTemplateI13_GFileMonitorEESaIS3_ELN9__gnu_cxx12_Lock_policyE2EED2Ev@Base 2.0.0
 (optional=templinst|arch=armel)_ZNSt23_Sp_counted_ptr_inplaceIN5Peony15GObjectTemplateI15_GVolumeMonitorEESaIS3_ELN9__gnu_cxx12_Lock_policyE1EE10_M_destroyEv@Base 2.0.1
 (optional=templinst|arch=armel)_ZNSt23_Sp_counted_ptr_inplaceIN5Peony15GObjectTemplateI15_GVolumeMonitorEESaIS3_ELN9__gnu_cxx12_Lock_policyE1EE10_M_disposeEv@Base 2.0.1
 (optional=templinst|arch=armel)_ZNSt23_Sp_counted_ptr_inplaceIN5Peony15GObjectTemplateI15_GVolumeMonitorEESaIS3_ELN9__gnu_cxx12_Lock_policyE1EE14_M_get_deleterERKSt9type_info@Base 2.0.1
 (optional=templinst|arch=armel)_ZNSt23_Sp_counted_ptr_inplaceIN5Peony15GObjectTemplateI15_GVolumeMonitorEESaIS3_ELN9__gnu_cxx12_Lock_policyE1EED0Ev@Base 2.0.1
 (optional=templinst|arch=armel)_ZNSt23_Sp_counted_ptr_inplaceIN5Peony15GObjectTemplateI15_GVolumeMonitorEESaIS3_ELN9__gnu_cxx12_Lock_policyE1EED1Ev@Base 2.0.1
 (optional=templinst|arch=armel)_ZNSt23_Sp_counted_ptr_inplaceIN5Peony15GObjectTemplateI15_GVolumeMonitorEESaIS3_ELN9__gnu_cxx12_Lock_policyE1EED2Ev@Base 2.0.1
 (optional=templinst|arch=amd64)_ZNSt23_Sp_counted_ptr_inplaceIN5Peony15GObjectTemplateI15_GVolumeMonitorEESaIS3_ELN9__gnu_cxx12_Lock_policyE2EE10_M_destroyEv@Base 2.0.0
 (optional=templinst|arch=amd64)_ZNSt23_Sp_counted_ptr_inplaceIN5Peony15GObjectTemplateI15_GVolumeMonitorEESaIS3_ELN9__gnu_cxx12_Lock_policyE2EE10_M_disposeEv@Base 2.0.0
 (optional=templinst|arch=amd64)_ZNSt23_Sp_counted_ptr_inplaceIN5Peony15GObjectTemplateI15_GVolumeMonitorEESaIS3_ELN9__gnu_cxx12_Lock_policyE2EE14_M_get_deleterERKSt9type_info@Base 2.0.0
 (optional=templinst|arch=amd64)_ZNSt23_Sp_counted_ptr_inplaceIN5Peony15GObjectTemplateI15_GVolumeMonitorEESaIS3_ELN9__gnu_cxx12_Lock_policyE2EED0Ev@Base 2.0.0
 (optional=templinst|arch=amd64)_ZNSt23_Sp_counted_ptr_inplaceIN5Peony15GObjectTemplateI15_GVolumeMonitorEESaIS3_ELN9__gnu_cxx12_Lock_policyE2EED1Ev@Base 2.0.0
 (optional=templinst|arch=amd64)_ZNSt23_Sp_counted_ptr_inplaceIN5Peony15GObjectTemplateI15_GVolumeMonitorEESaIS3_ELN9__gnu_cxx12_Lock_policyE2EED2Ev@Base 2.0.0
 (optional=templinst|arch=armel)_ZNSt23_Sp_counted_ptr_inplaceIN5Peony15GObjectTemplateI16_GFileEnumeratorEESaIS3_ELN9__gnu_cxx12_Lock_policyE1EE10_M_destroyEv@Base 2.0.1
 (optional=templinst|arch=armel)_ZNSt23_Sp_counted_ptr_inplaceIN5Peony15GObjectTemplateI16_GFileEnumeratorEESaIS3_ELN9__gnu_cxx12_Lock_policyE1EE10_M_disposeEv@Base 2.0.1
 (optional=templinst|arch=armel)_ZNSt23_Sp_counted_ptr_inplaceIN5Peony15GObjectTemplateI16_GFileEnumeratorEESaIS3_ELN9__gnu_cxx12_Lock_policyE1EE14_M_get_deleterERKSt9type_info@Base 2.0.1
 (optional=templinst|arch=armel)_ZNSt23_Sp_counted_ptr_inplaceIN5Peony15GObjectTemplateI16_GFileEnumeratorEESaIS3_ELN9__gnu_cxx12_Lock_policyE1EED0Ev@Base 2.0.1
 (optional=templinst|arch=armel)_ZNSt23_Sp_counted_ptr_inplaceIN5Peony15GObjectTemplateI16_GFileEnumeratorEESaIS3_ELN9__gnu_cxx12_Lock_policyE1EED1Ev@Base 2.0.1
 (optional=templinst|arch=armel)_ZNSt23_Sp_counted_ptr_inplaceIN5Peony15GObjectTemplateI16_GFileEnumeratorEESaIS3_ELN9__gnu_cxx12_Lock_policyE1EED2Ev@Base 2.0.1
 (optional=templinst|arch=amd64)_ZNSt23_Sp_counted_ptr_inplaceIN5Peony15GObjectTemplateI16_GFileEnumeratorEESaIS3_ELN9__gnu_cxx12_Lock_policyE2EE10_M_destroyEv@Base 2.0.0
 (optional=templinst|arch=amd64)_ZNSt23_Sp_counted_ptr_inplaceIN5Peony15GObjectTemplateI16_GFileEnumeratorEESaIS3_ELN9__gnu_cxx12_Lock_policyE2EE10_M_disposeEv@Base 2.0.0
 (optional=templinst|arch=amd64)_ZNSt23_Sp_counted_ptr_inplaceIN5Peony15GObjectTemplateI16_GFileEnumeratorEESaIS3_ELN9__gnu_cxx12_Lock_policyE2EE14_M_get_deleterERKSt9type_info@Base 2.0.0
 (optional=templinst|arch=amd64)_ZNSt23_Sp_counted_ptr_inplaceIN5Peony15GObjectTemplateI16_GFileEnumeratorEESaIS3_ELN9__gnu_cxx12_Lock_policyE2EED0Ev@Base 2.0.0
 (optional=templinst|arch=amd64)_ZNSt23_Sp_counted_ptr_inplaceIN5Peony15GObjectTemplateI16_GFileEnumeratorEESaIS3_ELN9__gnu_cxx12_Lock_policyE2EED1Ev@Base 2.0.0
 (optional=templinst|arch=amd64)_ZNSt23_Sp_counted_ptr_inplaceIN5Peony15GObjectTemplateI16_GFileEnumeratorEESaIS3_ELN9__gnu_cxx12_Lock_policyE2EED2Ev@Base 2.0.0
 (optional=templinst|arch=armel)_ZNSt23_Sp_counted_ptr_inplaceIN5Peony15GObjectTemplateI6_GFileEESaIS3_ELN9__gnu_cxx12_Lock_policyE1EE10_M_destroyEv@Base 2.0.1
 (optional=templinst|arch=armel)_ZNSt23_Sp_counted_ptr_inplaceIN5Peony15GObjectTemplateI6_GFileEESaIS3_ELN9__gnu_cxx12_Lock_policyE1EE10_M_disposeEv@Base 2.0.1
 (optional=templinst|arch=armel)_ZNSt23_Sp_counted_ptr_inplaceIN5Peony15GObjectTemplateI6_GFileEESaIS3_ELN9__gnu_cxx12_Lock_policyE1EE14_M_get_deleterERKSt9type_info@Base 2.0.1
 (optional=templinst|arch=armel)_ZNSt23_Sp_counted_ptr_inplaceIN5Peony15GObjectTemplateI6_GFileEESaIS3_ELN9__gnu_cxx12_Lock_policyE1EED0Ev@Base 2.0.1
 (optional=templinst|arch=armel)_ZNSt23_Sp_counted_ptr_inplaceIN5Peony15GObjectTemplateI6_GFileEESaIS3_ELN9__gnu_cxx12_Lock_policyE1EED1Ev@Base 2.0.1
 (optional=templinst|arch=armel)_ZNSt23_Sp_counted_ptr_inplaceIN5Peony15GObjectTemplateI6_GFileEESaIS3_ELN9__gnu_cxx12_Lock_policyE1EED2Ev@Base 2.0.1
 (optional=templinst|arch=amd64)_ZNSt23_Sp_counted_ptr_inplaceIN5Peony15GObjectTemplateI6_GFileEESaIS3_ELN9__gnu_cxx12_Lock_policyE2EE10_M_destroyEv@Base 2.0.0
 (optional=templinst|arch=amd64)_ZNSt23_Sp_counted_ptr_inplaceIN5Peony15GObjectTemplateI6_GFileEESaIS3_ELN9__gnu_cxx12_Lock_policyE2EE10_M_disposeEv@Base 2.0.0
 (optional=templinst|arch=amd64)_ZNSt23_Sp_counted_ptr_inplaceIN5Peony15GObjectTemplateI6_GFileEESaIS3_ELN9__gnu_cxx12_Lock_policyE2EE14_M_get_deleterERKSt9type_info@Base 2.0.0
 (optional=templinst|arch=amd64)_ZNSt23_Sp_counted_ptr_inplaceIN5Peony15GObjectTemplateI6_GFileEESaIS3_ELN9__gnu_cxx12_Lock_policyE2EED0Ev@Base 2.0.0
 (optional=templinst|arch=amd64)_ZNSt23_Sp_counted_ptr_inplaceIN5Peony15GObjectTemplateI6_GFileEESaIS3_ELN9__gnu_cxx12_Lock_policyE2EED1Ev@Base 2.0.0
 (optional=templinst|arch=amd64)_ZNSt23_Sp_counted_ptr_inplaceIN5Peony15GObjectTemplateI6_GFileEESaIS3_ELN9__gnu_cxx12_Lock_policyE2EED2Ev@Base 2.0.0
 (optional=templinst|arch=armel)_ZNSt23_Sp_counted_ptr_inplaceIN5Peony15GObjectTemplateI6_GIconEESaIS3_ELN9__gnu_cxx12_Lock_policyE1EE10_M_destroyEv@Base 2.0.1
 (optional=templinst|arch=armel)_ZNSt23_Sp_counted_ptr_inplaceIN5Peony15GObjectTemplateI6_GIconEESaIS3_ELN9__gnu_cxx12_Lock_policyE1EE10_M_disposeEv@Base 2.0.1
 (optional=templinst|arch=armel)_ZNSt23_Sp_counted_ptr_inplaceIN5Peony15GObjectTemplateI6_GIconEESaIS3_ELN9__gnu_cxx12_Lock_policyE1EE14_M_get_deleterERKSt9type_info@Base 2.0.1
 (optional=templinst|arch=armel)_ZNSt23_Sp_counted_ptr_inplaceIN5Peony15GObjectTemplateI6_GIconEESaIS3_ELN9__gnu_cxx12_Lock_policyE1EED0Ev@Base 2.0.1
 (optional=templinst|arch=armel)_ZNSt23_Sp_counted_ptr_inplaceIN5Peony15GObjectTemplateI6_GIconEESaIS3_ELN9__gnu_cxx12_Lock_policyE1EED1Ev@Base 2.0.1
 (optional=templinst|arch=armel)_ZNSt23_Sp_counted_ptr_inplaceIN5Peony15GObjectTemplateI6_GIconEESaIS3_ELN9__gnu_cxx12_Lock_policyE1EED2Ev@Base 2.0.1
 (optional=templinst|arch=amd64)_ZNSt23_Sp_counted_ptr_inplaceIN5Peony15GObjectTemplateI6_GIconEESaIS3_ELN9__gnu_cxx12_Lock_policyE2EE10_M_destroyEv@Base 2.0.0
 (optional=templinst|arch=amd64)_ZNSt23_Sp_counted_ptr_inplaceIN5Peony15GObjectTemplateI6_GIconEESaIS3_ELN9__gnu_cxx12_Lock_policyE2EE10_M_disposeEv@Base 2.0.0
 (optional=templinst|arch=amd64)_ZNSt23_Sp_counted_ptr_inplaceIN5Peony15GObjectTemplateI6_GIconEESaIS3_ELN9__gnu_cxx12_Lock_policyE2EE14_M_get_deleterERKSt9type_info@Base 2.0.0
 (optional=templinst|arch=amd64)_ZNSt23_Sp_counted_ptr_inplaceIN5Peony15GObjectTemplateI6_GIconEESaIS3_ELN9__gnu_cxx12_Lock_policyE2EED0Ev@Base 2.0.0
 (optional=templinst|arch=amd64)_ZNSt23_Sp_counted_ptr_inplaceIN5Peony15GObjectTemplateI6_GIconEESaIS3_ELN9__gnu_cxx12_Lock_policyE2EED1Ev@Base 2.0.0
 (optional=templinst|arch=amd64)_ZNSt23_Sp_counted_ptr_inplaceIN5Peony15GObjectTemplateI6_GIconEESaIS3_ELN9__gnu_cxx12_Lock_policyE2EED2Ev@Base 2.0.0
 (optional=templinst|arch=armel)_ZNSt23_Sp_counted_ptr_inplaceIN5Peony15GObjectTemplateI7_GDriveEESaIS3_ELN9__gnu_cxx12_Lock_policyE1EE10_M_destroyEv@Base 2.0.1
 (optional=templinst|arch=armel)_ZNSt23_Sp_counted_ptr_inplaceIN5Peony15GObjectTemplateI7_GDriveEESaIS3_ELN9__gnu_cxx12_Lock_policyE1EE10_M_disposeEv@Base 2.0.1
 (optional=templinst|arch=armel)_ZNSt23_Sp_counted_ptr_inplaceIN5Peony15GObjectTemplateI7_GDriveEESaIS3_ELN9__gnu_cxx12_Lock_policyE1EE14_M_get_deleterERKSt9type_info@Base 2.0.1
 (optional=templinst|arch=armel)_ZNSt23_Sp_counted_ptr_inplaceIN5Peony15GObjectTemplateI7_GDriveEESaIS3_ELN9__gnu_cxx12_Lock_policyE1EED0Ev@Base 2.0.1
 (optional=templinst|arch=armel)_ZNSt23_Sp_counted_ptr_inplaceIN5Peony15GObjectTemplateI7_GDriveEESaIS3_ELN9__gnu_cxx12_Lock_policyE1EED1Ev@Base 2.0.1
 (optional=templinst|arch=armel)_ZNSt23_Sp_counted_ptr_inplaceIN5Peony15GObjectTemplateI7_GDriveEESaIS3_ELN9__gnu_cxx12_Lock_policyE1EED2Ev@Base 2.0.1
 (optional=templinst|arch=amd64)_ZNSt23_Sp_counted_ptr_inplaceIN5Peony15GObjectTemplateI7_GDriveEESaIS3_ELN9__gnu_cxx12_Lock_policyE2EE10_M_destroyEv@Base 2.0.0
 (optional=templinst|arch=amd64)_ZNSt23_Sp_counted_ptr_inplaceIN5Peony15GObjectTemplateI7_GDriveEESaIS3_ELN9__gnu_cxx12_Lock_policyE2EE10_M_disposeEv@Base 2.0.0
 (optional=templinst|arch=amd64)_ZNSt23_Sp_counted_ptr_inplaceIN5Peony15GObjectTemplateI7_GDriveEESaIS3_ELN9__gnu_cxx12_Lock_policyE2EE14_M_get_deleterERKSt9type_info@Base 2.0.0
 (optional=templinst|arch=amd64)_ZNSt23_Sp_counted_ptr_inplaceIN5Peony15GObjectTemplateI7_GDriveEESaIS3_ELN9__gnu_cxx12_Lock_policyE2EED0Ev@Base 2.0.0
 (optional=templinst|arch=amd64)_ZNSt23_Sp_counted_ptr_inplaceIN5Peony15GObjectTemplateI7_GDriveEESaIS3_ELN9__gnu_cxx12_Lock_policyE2EED1Ev@Base 2.0.0
 (optional=templinst|arch=amd64)_ZNSt23_Sp_counted_ptr_inplaceIN5Peony15GObjectTemplateI7_GDriveEESaIS3_ELN9__gnu_cxx12_Lock_policyE2EED2Ev@Base 2.0.0
 (optional=templinst|arch=armel)_ZNSt23_Sp_counted_ptr_inplaceIN5Peony15GObjectTemplateI7_GMountEESaIS3_ELN9__gnu_cxx12_Lock_policyE1EE10_M_destroyEv@Base 2.0.1
 (optional=templinst|arch=armel)_ZNSt23_Sp_counted_ptr_inplaceIN5Peony15GObjectTemplateI7_GMountEESaIS3_ELN9__gnu_cxx12_Lock_policyE1EE10_M_disposeEv@Base 2.0.1
 (optional=templinst|arch=armel)_ZNSt23_Sp_counted_ptr_inplaceIN5Peony15GObjectTemplateI7_GMountEESaIS3_ELN9__gnu_cxx12_Lock_policyE1EE14_M_get_deleterERKSt9type_info@Base 2.0.1
 (optional=templinst|arch=armel)_ZNSt23_Sp_counted_ptr_inplaceIN5Peony15GObjectTemplateI7_GMountEESaIS3_ELN9__gnu_cxx12_Lock_policyE1EED0Ev@Base 2.0.1
 (optional=templinst|arch=armel)_ZNSt23_Sp_counted_ptr_inplaceIN5Peony15GObjectTemplateI7_GMountEESaIS3_ELN9__gnu_cxx12_Lock_policyE1EED1Ev@Base 2.0.1
 (optional=templinst|arch=armel)_ZNSt23_Sp_counted_ptr_inplaceIN5Peony15GObjectTemplateI7_GMountEESaIS3_ELN9__gnu_cxx12_Lock_policyE1EED2Ev@Base 2.0.1
 (optional=templinst|arch=amd64)_ZNSt23_Sp_counted_ptr_inplaceIN5Peony15GObjectTemplateI7_GMountEESaIS3_ELN9__gnu_cxx12_Lock_policyE2EE10_M_destroyEv@Base 2.0.0
 (optional=templinst|arch=amd64)_ZNSt23_Sp_counted_ptr_inplaceIN5Peony15GObjectTemplateI7_GMountEESaIS3_ELN9__gnu_cxx12_Lock_policyE2EE10_M_disposeEv@Base 2.0.0
 (optional=templinst|arch=amd64)_ZNSt23_Sp_counted_ptr_inplaceIN5Peony15GObjectTemplateI7_GMountEESaIS3_ELN9__gnu_cxx12_Lock_policyE2EE14_M_get_deleterERKSt9type_info@Base 2.0.0
 (optional=templinst|arch=amd64)_ZNSt23_Sp_counted_ptr_inplaceIN5Peony15GObjectTemplateI7_GMountEESaIS3_ELN9__gnu_cxx12_Lock_policyE2EED0Ev@Base 2.0.0
 (optional=templinst|arch=amd64)_ZNSt23_Sp_counted_ptr_inplaceIN5Peony15GObjectTemplateI7_GMountEESaIS3_ELN9__gnu_cxx12_Lock_policyE2EED1Ev@Base 2.0.0
 (optional=templinst|arch=amd64)_ZNSt23_Sp_counted_ptr_inplaceIN5Peony15GObjectTemplateI7_GMountEESaIS3_ELN9__gnu_cxx12_Lock_policyE2EED2Ev@Base 2.0.0
 (optional=templinst|arch=armel)_ZNSt23_Sp_counted_ptr_inplaceIN5Peony15GObjectTemplateI8_GVolumeEESaIS3_ELN9__gnu_cxx12_Lock_policyE1EE10_M_destroyEv@Base 2.0.1
 (optional=templinst|arch=armel)_ZNSt23_Sp_counted_ptr_inplaceIN5Peony15GObjectTemplateI8_GVolumeEESaIS3_ELN9__gnu_cxx12_Lock_policyE1EE10_M_disposeEv@Base 2.0.1
 (optional=templinst|arch=armel)_ZNSt23_Sp_counted_ptr_inplaceIN5Peony15GObjectTemplateI8_GVolumeEESaIS3_ELN9__gnu_cxx12_Lock_policyE1EE14_M_get_deleterERKSt9type_info@Base 2.0.1
 (optional=templinst|arch=armel)_ZNSt23_Sp_counted_ptr_inplaceIN5Peony15GObjectTemplateI8_GVolumeEESaIS3_ELN9__gnu_cxx12_Lock_policyE1EED0Ev@Base 2.0.1
 (optional=templinst|arch=armel)_ZNSt23_Sp_counted_ptr_inplaceIN5Peony15GObjectTemplateI8_GVolumeEESaIS3_ELN9__gnu_cxx12_Lock_policyE1EED1Ev@Base 2.0.1
 (optional=templinst|arch=armel)_ZNSt23_Sp_counted_ptr_inplaceIN5Peony15GObjectTemplateI8_GVolumeEESaIS3_ELN9__gnu_cxx12_Lock_policyE1EED2Ev@Base 2.0.1
 (optional=templinst|arch=amd64)_ZNSt23_Sp_counted_ptr_inplaceIN5Peony15GObjectTemplateI8_GVolumeEESaIS3_ELN9__gnu_cxx12_Lock_policyE2EE10_M_destroyEv@Base 2.0.0
 (optional=templinst|arch=amd64)_ZNSt23_Sp_counted_ptr_inplaceIN5Peony15GObjectTemplateI8_GVolumeEESaIS3_ELN9__gnu_cxx12_Lock_policyE2EE10_M_disposeEv@Base 2.0.0
 (optional=templinst|arch=amd64)_ZNSt23_Sp_counted_ptr_inplaceIN5Peony15GObjectTemplateI8_GVolumeEESaIS3_ELN9__gnu_cxx12_Lock_policyE2EE14_M_get_deleterERKSt9type_info@Base 2.0.0
 (optional=templinst|arch=amd64)_ZNSt23_Sp_counted_ptr_inplaceIN5Peony15GObjectTemplateI8_GVolumeEESaIS3_ELN9__gnu_cxx12_Lock_policyE2EED0Ev@Base 2.0.0
 (optional=templinst|arch=amd64)_ZNSt23_Sp_counted_ptr_inplaceIN5Peony15GObjectTemplateI8_GVolumeEESaIS3_ELN9__gnu_cxx12_Lock_policyE2EED1Ev@Base 2.0.0
 (optional=templinst|arch=amd64)_ZNSt23_Sp_counted_ptr_inplaceIN5Peony15GObjectTemplateI8_GVolumeEESaIS3_ELN9__gnu_cxx12_Lock_policyE2EED2Ev@Base 2.0.0
 (optional=templinst|arch=armel)_ZNSt23_Sp_counted_ptr_inplaceIN5Peony17FileOperationInfoESaIS1_ELN9__gnu_cxx12_Lock_policyE1EE10_M_destroyEv@Base 2.0.1
 (optional=templinst|arch=armel)_ZNSt23_Sp_counted_ptr_inplaceIN5Peony17FileOperationInfoESaIS1_ELN9__gnu_cxx12_Lock_policyE1EE10_M_disposeEv@Base 2.0.1
 (optional=templinst|arch=armel)_ZNSt23_Sp_counted_ptr_inplaceIN5Peony17FileOperationInfoESaIS1_ELN9__gnu_cxx12_Lock_policyE1EE14_M_get_deleterERKSt9type_info@Base 2.0.1
 (optional=templinst|arch=armel)_ZNSt23_Sp_counted_ptr_inplaceIN5Peony17FileOperationInfoESaIS1_ELN9__gnu_cxx12_Lock_policyE1EED0Ev@Base 2.0.1
 (optional=templinst|arch=armel)_ZNSt23_Sp_counted_ptr_inplaceIN5Peony17FileOperationInfoESaIS1_ELN9__gnu_cxx12_Lock_policyE1EED1Ev@Base 2.0.1
 (optional=templinst|arch=armel)_ZNSt23_Sp_counted_ptr_inplaceIN5Peony17FileOperationInfoESaIS1_ELN9__gnu_cxx12_Lock_policyE1EED2Ev@Base 2.0.1
 (optional=templinst|arch=amd64)_ZNSt23_Sp_counted_ptr_inplaceIN5Peony17FileOperationInfoESaIS1_ELN9__gnu_cxx12_Lock_policyE2EE10_M_destroyEv@Base 2.0.0
 (optional=templinst|arch=amd64)_ZNSt23_Sp_counted_ptr_inplaceIN5Peony17FileOperationInfoESaIS1_ELN9__gnu_cxx12_Lock_policyE2EE10_M_disposeEv@Base 2.0.0
 (optional=templinst|arch=amd64)_ZNSt23_Sp_counted_ptr_inplaceIN5Peony17FileOperationInfoESaIS1_ELN9__gnu_cxx12_Lock_policyE2EE14_M_get_deleterERKSt9type_info@Base 2.0.0
 (optional=templinst|arch=amd64)_ZNSt23_Sp_counted_ptr_inplaceIN5Peony17FileOperationInfoESaIS1_ELN9__gnu_cxx12_Lock_policyE2EED0Ev@Base 2.0.0
 (optional=templinst|arch=amd64)_ZNSt23_Sp_counted_ptr_inplaceIN5Peony17FileOperationInfoESaIS1_ELN9__gnu_cxx12_Lock_policyE2EED1Ev@Base 2.0.0
 (optional=templinst|arch=amd64)_ZNSt23_Sp_counted_ptr_inplaceIN5Peony17FileOperationInfoESaIS1_ELN9__gnu_cxx12_Lock_policyE2EED2Ev@Base 2.0.0
 (optional=templinst|arch=armel)_ZNSt23_Sp_counted_ptr_inplaceIN5Peony5DriveESaIS1_ELN9__gnu_cxx12_Lock_policyE1EE10_M_destroyEv@Base 2.0.1
 (optional=templinst|arch=armel)_ZNSt23_Sp_counted_ptr_inplaceIN5Peony5DriveESaIS1_ELN9__gnu_cxx12_Lock_policyE1EE10_M_disposeEv@Base 2.0.1
 (optional=templinst|arch=armel)_ZNSt23_Sp_counted_ptr_inplaceIN5Peony5DriveESaIS1_ELN9__gnu_cxx12_Lock_policyE1EE14_M_get_deleterERKSt9type_info@Base 2.0.1
 (optional=templinst|arch=armel)_ZNSt23_Sp_counted_ptr_inplaceIN5Peony5DriveESaIS1_ELN9__gnu_cxx12_Lock_policyE1EED0Ev@Base 2.0.1
 (optional=templinst|arch=armel)_ZNSt23_Sp_counted_ptr_inplaceIN5Peony5DriveESaIS1_ELN9__gnu_cxx12_Lock_policyE1EED1Ev@Base 2.0.1
 (optional=templinst|arch=armel)_ZNSt23_Sp_counted_ptr_inplaceIN5Peony5DriveESaIS1_ELN9__gnu_cxx12_Lock_policyE1EED2Ev@Base 2.0.1
 (optional=templinst|arch=amd64)_ZNSt23_Sp_counted_ptr_inplaceIN5Peony5DriveESaIS1_ELN9__gnu_cxx12_Lock_policyE2EE10_M_destroyEv@Base 2.0.0
 (optional=templinst|arch=amd64)_ZNSt23_Sp_counted_ptr_inplaceIN5Peony5DriveESaIS1_ELN9__gnu_cxx12_Lock_policyE2EE10_M_disposeEv@Base 2.0.0
 (optional=templinst|arch=amd64)_ZNSt23_Sp_counted_ptr_inplaceIN5Peony5DriveESaIS1_ELN9__gnu_cxx12_Lock_policyE2EE14_M_get_deleterERKSt9type_info@Base 2.0.0
 (optional=templinst|arch=amd64)_ZNSt23_Sp_counted_ptr_inplaceIN5Peony5DriveESaIS1_ELN9__gnu_cxx12_Lock_policyE2EED0Ev@Base 2.0.0
 (optional=templinst|arch=amd64)_ZNSt23_Sp_counted_ptr_inplaceIN5Peony5DriveESaIS1_ELN9__gnu_cxx12_Lock_policyE2EED1Ev@Base 2.0.0
 (optional=templinst|arch=amd64)_ZNSt23_Sp_counted_ptr_inplaceIN5Peony5DriveESaIS1_ELN9__gnu_cxx12_Lock_policyE2EED2Ev@Base 2.0.0
 (optional=templinst|arch=armel)_ZNSt23_Sp_counted_ptr_inplaceIN5Peony5MountESaIS1_ELN9__gnu_cxx12_Lock_policyE1EE10_M_destroyEv@Base 2.0.1
 (optional=templinst|arch=armel)_ZNSt23_Sp_counted_ptr_inplaceIN5Peony5MountESaIS1_ELN9__gnu_cxx12_Lock_policyE1EE10_M_disposeEv@Base 2.0.1
 (optional=templinst|arch=armel)_ZNSt23_Sp_counted_ptr_inplaceIN5Peony5MountESaIS1_ELN9__gnu_cxx12_Lock_policyE1EE14_M_get_deleterERKSt9type_info@Base 2.0.1
 (optional=templinst|arch=armel)_ZNSt23_Sp_counted_ptr_inplaceIN5Peony5MountESaIS1_ELN9__gnu_cxx12_Lock_policyE1EED0Ev@Base 2.0.1
 (optional=templinst|arch=armel)_ZNSt23_Sp_counted_ptr_inplaceIN5Peony5MountESaIS1_ELN9__gnu_cxx12_Lock_policyE1EED1Ev@Base 2.0.1
 (optional=templinst|arch=armel)_ZNSt23_Sp_counted_ptr_inplaceIN5Peony5MountESaIS1_ELN9__gnu_cxx12_Lock_policyE1EED2Ev@Base 2.0.1
 (optional=templinst|arch=amd64)_ZNSt23_Sp_counted_ptr_inplaceIN5Peony5MountESaIS1_ELN9__gnu_cxx12_Lock_policyE2EE10_M_destroyEv@Base 2.0.0
 (optional=templinst|arch=amd64)_ZNSt23_Sp_counted_ptr_inplaceIN5Peony5MountESaIS1_ELN9__gnu_cxx12_Lock_policyE2EE10_M_disposeEv@Base 2.0.0
 (optional=templinst|arch=amd64)_ZNSt23_Sp_counted_ptr_inplaceIN5Peony5MountESaIS1_ELN9__gnu_cxx12_Lock_policyE2EE14_M_get_deleterERKSt9type_info@Base 2.0.0
 (optional=templinst|arch=amd64)_ZNSt23_Sp_counted_ptr_inplaceIN5Peony5MountESaIS1_ELN9__gnu_cxx12_Lock_policyE2EED0Ev@Base 2.0.0
 (optional=templinst|arch=amd64)_ZNSt23_Sp_counted_ptr_inplaceIN5Peony5MountESaIS1_ELN9__gnu_cxx12_Lock_policyE2EED1Ev@Base 2.0.0
 (optional=templinst|arch=amd64)_ZNSt23_Sp_counted_ptr_inplaceIN5Peony5MountESaIS1_ELN9__gnu_cxx12_Lock_policyE2EED2Ev@Base 2.0.0
 (optional=templinst|arch=armel)_ZNSt23_Sp_counted_ptr_inplaceIN5Peony6VolumeESaIS1_ELN9__gnu_cxx12_Lock_policyE1EE10_M_destroyEv@Base 2.0.1
 (optional=templinst|arch=armel)_ZNSt23_Sp_counted_ptr_inplaceIN5Peony6VolumeESaIS1_ELN9__gnu_cxx12_Lock_policyE1EE10_M_disposeEv@Base 2.0.1
 (optional=templinst|arch=armel)_ZNSt23_Sp_counted_ptr_inplaceIN5Peony6VolumeESaIS1_ELN9__gnu_cxx12_Lock_policyE1EE14_M_get_deleterERKSt9type_info@Base 2.0.1
 (optional=templinst|arch=armel)_ZNSt23_Sp_counted_ptr_inplaceIN5Peony6VolumeESaIS1_ELN9__gnu_cxx12_Lock_policyE1EED0Ev@Base 2.0.1
 (optional=templinst|arch=armel)_ZNSt23_Sp_counted_ptr_inplaceIN5Peony6VolumeESaIS1_ELN9__gnu_cxx12_Lock_policyE1EED1Ev@Base 2.0.1
 (optional=templinst|arch=armel)_ZNSt23_Sp_counted_ptr_inplaceIN5Peony6VolumeESaIS1_ELN9__gnu_cxx12_Lock_policyE1EED2Ev@Base 2.0.1
 (optional=templinst|arch=amd64)_ZNSt23_Sp_counted_ptr_inplaceIN5Peony6VolumeESaIS1_ELN9__gnu_cxx12_Lock_policyE2EE10_M_destroyEv@Base 2.0.0
 (optional=templinst|arch=amd64)_ZNSt23_Sp_counted_ptr_inplaceIN5Peony6VolumeESaIS1_ELN9__gnu_cxx12_Lock_policyE2EE10_M_disposeEv@Base 2.0.0
 (optional=templinst|arch=amd64)_ZNSt23_Sp_counted_ptr_inplaceIN5Peony6VolumeESaIS1_ELN9__gnu_cxx12_Lock_policyE2EE14_M_get_deleterERKSt9type_info@Base 2.0.0
 (optional=templinst|arch=amd64)_ZNSt23_Sp_counted_ptr_inplaceIN5Peony6VolumeESaIS1_ELN9__gnu_cxx12_Lock_policyE2EED0Ev@Base 2.0.0
 (optional=templinst|arch=amd64)_ZNSt23_Sp_counted_ptr_inplaceIN5Peony6VolumeESaIS1_ELN9__gnu_cxx12_Lock_policyE2EED1Ev@Base 2.0.0
 (optional=templinst|arch=amd64)_ZNSt23_Sp_counted_ptr_inplaceIN5Peony6VolumeESaIS1_ELN9__gnu_cxx12_Lock_policyE2EED2Ev@Base 2.0.0
 (optional=templinst|arch=armel)_ZNSt23_Sp_counted_ptr_inplaceIN5Peony8FileInfoESaIS1_ELN9__gnu_cxx12_Lock_policyE1EE10_M_destroyEv@Base 2.0.1
 (optional=templinst|arch=armel)_ZNSt23_Sp_counted_ptr_inplaceIN5Peony8FileInfoESaIS1_ELN9__gnu_cxx12_Lock_policyE1EE10_M_disposeEv@Base 2.0.1
 (optional=templinst|arch=armel)_ZNSt23_Sp_counted_ptr_inplaceIN5Peony8FileInfoESaIS1_ELN9__gnu_cxx12_Lock_policyE1EE14_M_get_deleterERKSt9type_info@Base 2.0.1
 (optional=templinst|arch=armel)_ZNSt23_Sp_counted_ptr_inplaceIN5Peony8FileInfoESaIS1_ELN9__gnu_cxx12_Lock_policyE1EED0Ev@Base 2.0.1
 (optional=templinst|arch=armel)_ZNSt23_Sp_counted_ptr_inplaceIN5Peony8FileInfoESaIS1_ELN9__gnu_cxx12_Lock_policyE1EED1Ev@Base 2.0.1
 (optional=templinst|arch=armel)_ZNSt23_Sp_counted_ptr_inplaceIN5Peony8FileInfoESaIS1_ELN9__gnu_cxx12_Lock_policyE1EED2Ev@Base 2.0.1
 (optional=templinst|arch=amd64)_ZNSt23_Sp_counted_ptr_inplaceIN5Peony8FileInfoESaIS1_ELN9__gnu_cxx12_Lock_policyE2EE10_M_destroyEv@Base 2.0.0
 (optional=templinst|arch=amd64)_ZNSt23_Sp_counted_ptr_inplaceIN5Peony8FileInfoESaIS1_ELN9__gnu_cxx12_Lock_policyE2EE10_M_disposeEv@Base 2.0.0
 (optional=templinst|arch=amd64)_ZNSt23_Sp_counted_ptr_inplaceIN5Peony8FileInfoESaIS1_ELN9__gnu_cxx12_Lock_policyE2EE14_M_get_deleterERKSt9type_info@Base 2.0.0
 (optional=templinst|arch=amd64)_ZNSt23_Sp_counted_ptr_inplaceIN5Peony8FileInfoESaIS1_ELN9__gnu_cxx12_Lock_policyE2EED0Ev@Base 2.0.0
 (optional=templinst|arch=amd64)_ZNSt23_Sp_counted_ptr_inplaceIN5Peony8FileInfoESaIS1_ELN9__gnu_cxx12_Lock_policyE2EED1Ev@Base 2.0.0
 (optional=templinst|arch=amd64)_ZNSt23_Sp_counted_ptr_inplaceIN5Peony8FileInfoESaIS1_ELN9__gnu_cxx12_Lock_policyE2EED2Ev@Base 2.0.0
 (optional=templinst|arch= !s390x)_ZSt9__find_ifIPK7QStringN9__gnu_cxx5__ops16_Iter_equals_valIS1_EEET_S7_S7_T0_St26random_access_iterator_tag@Base 2.0.0
 _ZTI13FileLabelItem@Base 2.1.0
 _ZTI14FileLabelModel@Base 2.1.0
 _ZTI16QFutureInterfaceIvE@Base 2.0.0
 _ZTI18BorderShadowEffect@Base 2.1.0
 _ZTI18GenericThumbnailer@Base 2.1.0
 _ZTI19ConnectServerDialog@Base 2.0.0
 _ZTI22LocationBarButtonStyle@Base 2.2.0
 _ZTIN12QtConcurrent15RunFunctionTaskIvEE@Base 2.0.0
 _ZTIN12QtConcurrent19RunFunctionTaskBaseIvEE@Base 2.0.0
 _ZTIN5Peony11FileInfoJobE@Base 2.0.0
 _ZTIN5Peony11FileWatcherE@Base 2.0.0
 _ZTIN5Peony11LocationBarE@Base 2.0.0
 _ZTIN5Peony11SideBarMenuE@Base 2.0.0
 _ZTIN5Peony12PathBarModelE@Base 2.0.0
 _ZTIN5Peony12SideBarModelE@Base 2.0.0
 _ZTIN5Peony12ThumbnailJobE@Base 2.1.0
 _ZTIN5Peony13DirectoryView13IconViewStyleE@Base 2.0.0
 _ZTIN5Peony13DirectoryView13ListViewStyleE@Base 2.2.0
 _ZTIN5Peony13DirectoryView14IconViewEditorE@Base 2.0.0
 _ZTIN5Peony13DirectoryView16IconViewDelegateE@Base 2.0.0
#MISSING: 2.1.0# _ZTIN5Peony13DirectoryView17StandardViewProxyE@Base 2.0.0
 _ZTIN5Peony13DirectoryView19IconViewIndexWidgetE@Base 2.0.0
 _ZTIN5Peony13DirectoryView8IconViewE@Base 2.0.0
 _ZTIN5Peony13DirectoryView8ListViewE@Base 2.0.0
 _ZTIN5Peony13DirectoryView9IconView2E@Base 2.0.0
 _ZTIN5Peony13DirectoryView9ListView2E@Base 2.0.0
 _ZTIN5Peony13FMWindowIfaceE@Base 2.1.0
 _ZTIN5Peony13FileItemModelE@Base 2.0.0
 _ZTIN5Peony13FileOperationE@Base 2.0.0
 _ZTIN5Peony13IconContainerE@Base 2.0.0
 _ZTIN5Peony13NavigationBarE@Base 2.0.0
 _ZTIN5Peony13PathCompleterE@Base 2.0.0
 _ZTIN5Peony13PluginManagerE@Base 2.0.0
 _ZTIN5Peony13VolumeManagerE@Base 2.0.0
 _ZTIN5Peony14ClipboardUtilsE@Base 2.0.0
 _ZTIN5Peony14FileEnumeratorE@Base 2.0.0
 _ZTIN5Peony14GlobalSettingsE@Base 2.0.0
 _ZTIN5Peony14MountOperationE@Base 2.0.0
 _ZTIN5Peony15BookMarkManagerE@Base 2.0.0
 _ZTIN5Peony15FMWindowFactoryE@Base 2.1.0
 _ZTIN5Peony15FileLauchDialogE@Base 2.0.0
 _ZTIN5Peony15FilePreviewPageE@Base 2.0.0
 _ZTIN5Peony15IconViewFactoryE@Base 2.0.0
 _ZTIN5Peony15ListViewFactoryE@Base 2.0.0
 _ZTIN5Peony15PluginInterfaceE@Base 2.0.0
 _ZTIN5Peony15SideBarDelegateE@Base 2.0.0
 _ZTIN5Peony16AdvanceSearchBarE@Base 2.0.0
 _ZTIN5Peony16FileLaunchActionE@Base 2.0.0
 _ZTIN5Peony16FileNodeReporterE@Base 2.0.0
 _ZTIN5Peony16IconViewFactory2E@Base 2.0.0
 _ZTIN5Peony16ListViewDelegateE@Base 2.0.0
 _ZTIN5Peony16ListViewFactory2E@Base 2.0.0
 _ZTIN5Peony16PreviewPageIfaceE@Base 2.0.0
 _ZTIN5Peony16PropertiesWindowE@Base 2.0.0
 _ZTIN5Peony16SearchVFSManagerE@Base 2.0.0
 _ZTIN5Peony16StylePluginIfaceE@Base 2.0.0
 _ZTIN5Peony16ThumbnailManagerE@Base 2.0.0
 _ZTIN5Peony16ToolBarContainerE@Base 2.0.0
#MISSING: 2.1.0# _ZTIN5Peony16ViewFactoryModelE@Base 2.0.0
 _ZTIN5Peony17DirectoryViewMenuE@Base 2.0.0
 _ZTIN5Peony17FileCopyOperationE@Base 2.0.0
 _ZTIN5Peony17FileLaunchManagerE@Base 2.0.0
 _ZTIN5Peony17FileLinkOperationE@Base 2.0.0
 _ZTIN5Peony17FileMoveOperationE@Base 2.0.0
 _ZTIN5Peony17FileOperationInfoE@Base 2.0.0
 _ZTIN5Peony17MenuPluginManagerE@Base 2.0.0
 _ZTIN5Peony17NavigationToolBarE@Base 2.0.0
 _ZTIN5Peony17ViewFactoryModel2E@Base 2.0.0
 _ZTIN5Peony18ComplementaryStyleE@Base 2.0.0
 _ZTIN5Peony18DefaultPreviewPageE@Base 2.0.0
 _ZTIN5Peony18DirectoryViewIfaceE@Base 2.0.0
 _ZTIN5Peony18FileCountOperationE@Base 2.0.0
 _ZTIN5Peony18FileTrashOperationE@Base 2.0.0
 _ZTIN5Peony18IconContainerStyleE@Base 2.1.0
 _ZTIN5Peony18SearchBarContainerE@Base 2.1.0
 _ZTIN5Peony19AdvancedLocationBarE@Base 2.0.0
 _ZTIN5Peony19BasicPropertiesPageE@Base 2.0.0
 _ZTIN5Peony19DirectoryViewWidgetE@Base 2.0.0
 _ZTIN5Peony19FileDeleteOperationE@Base 2.0.0
 _ZTIN5Peony19FileRenameOperationE@Base 2.0.0
 _ZTIN5Peony19MenuPluginInterfaceE@Base 2.0.0
 _ZTIN5Peony19SideBarAbstractItemE@Base 2.0.0
 _ZTIN5Peony19SideBarFavoriteItemE@Base 2.0.0
 _ZTIN5Peony19SideBarPersonalItemE@Base 2.0.0
 _ZTIN5Peony20FileOperationManagerE@Base 2.0.0
 _ZTIN5Peony20FileUntrashOperationE@Base 2.0.0
 _ZTIN5Peony20PreviewOptionToolBarE@Base 2.0.0
 _ZTIN5Peony20PreviewPageContainerE@Base 2.0.0
 _ZTIN5Peony20SideBarSeparatorItemE@Base 2.0.0
 _ZTIN5Peony21SideBarFileSystemItemE@Base 2.0.0
 _ZTIN5Peony22ComputerPropertiesPageE@Base 2.0.0
 _ZTIN5Peony22DirectoryViewContainerE@Base 2.0.0
 _ZTIN5Peony22PreviewPagePluginIfaceE@Base 2.0.0
 _ZTIN5Peony23CreateTemplateOperationE@Base 2.0.0
 _ZTIN5Peony23DirectoryViewProxyIfaceE@Base 2.0.0
 _ZTIN5Peony23PropertiesWindowPrivateE@Base 2.0.0
 _ZTIN5Peony24CreateLinkInternalPluginE@Base 2.0.0
 _ZTIN5Peony24DirectoryViewPluginIfaceE@Base 2.0.0
 _ZTIN5Peony24FileOperationErrorDialogE@Base 2.0.0
 _ZTIN5Peony24FileOperationPreparePageE@Base 2.0.0
 _ZTIN5Peony25DefaultPreviewPageFactoryE@Base 2.0.0
 _ZTIN5Peony25DirectoryViewPluginIface2E@Base 2.0.0
 _ZTIN5Peony25FileOperationErrorHandlerE@Base 2.0.0
 _ZTIN5Peony25FileOperationProgressPageE@Base 2.0.0
 _ZTIN5Peony25FileOperationRollbackPageE@Base 2.0.0
 _ZTIN5Peony25PermissionsPropertiesPageE@Base 2.0.0
 _ZTIN5Peony25PreviewPageFactoryManagerE@Base 2.0.0
 _ZTIN5Peony26BasicPropertiesPageFactoryE@Base 2.0.0
#MISSING: 2.1.0# _ZTIN5Peony26ViewFactorySortFilterModelE@Base 2.0.0
#MISSING: 2.1.0# _ZTIN5Peony27DirectoryViewFactoryManagerE@Base 2.0.0
 _ZTIN5Peony27FileLabelInternalMenuPluginE@Base 2.1.0
 _ZTIN5Peony27FileOperationProgressWizardE@Base 2.0.0
 _ZTIN5Peony27SideBarProxyFilterSortModelE@Base 2.0.0
 _ZTIN5Peony27ToolBarExtensionActionIfaceE@Base 2.0.0
 _ZTIN5Peony27ViewFactorySortFilterModel2E@Base 2.0.0
 _ZTIN5Peony28DirectoryViewFactoryManager2E@Base 2.0.0
 _ZTIN5Peony28FileItemProxyFilterSortModelE@Base 2.0.0
 _ZTIN5Peony28RecentAndTrashPropertiesPageE@Base 2.0.0
 _ZTIN5Peony29ComputerPropertiesPageFactoryE@Base 2.0.0
 _ZTIN5Peony29PropertiesWindowPluginManagerE@Base 2.0.0
 _ZTIN5Peony30FileOperationAfterProgressPageE@Base 2.0.0
 _ZTIN5Peony32PermissionsPropertiesPageFactoryE@Base 2.0.0
 _ZTIN5Peony34PropertiesWindowTabPagePluginIfaceE@Base 2.0.0
 _ZTIN5Peony35RecentAndTrashPropertiesPageFactoryE@Base 2.0.0
 _ZTIN5Peony7SideBarE@Base 2.0.0
 _ZTIN5Peony7TabPageE@Base 2.0.0
 _ZTIN5Peony7ToolBarE@Base 2.0.0
 _ZTIN5Peony8FMWindowE@Base 2.0.0
 _ZTIN5Peony8FileInfoE@Base 2.0.0
 _ZTIN5Peony8FileItemE@Base 2.0.0
 _ZTIN5Peony8PathEditE@Base 2.0.0
 _ZTIN5Peony8TextEditE@Base 2.0.0
 _ZTIN5Peony9SearchBarE@Base 2.0.0
 _ZTIN5Peony9StatusBarE@Base 2.0.0
 (arch=armel)_ZTIN9__gnu_cxx24__concurrence_lock_errorE@Base 2.0.1
 (arch=armel)_ZTIN9__gnu_cxx26__concurrence_unlock_errorE@Base 2.0.1
 (arch=armel)_ZTIN9__gnu_cxx7__mutexE@Base 2.0.1
 (arch=armel)_ZTISt11_Mutex_baseILN9__gnu_cxx12_Lock_policyE1EE@Base 2.0.1
 (arch=amd64)_ZTISt11_Mutex_baseILN9__gnu_cxx12_Lock_policyE2EE@Base 2.0.1
 (arch=armel)_ZTISt16_Sp_counted_baseILN9__gnu_cxx12_Lock_policyE1EE@Base 2.0.1
 (arch=amd64)_ZTISt16_Sp_counted_baseILN9__gnu_cxx12_Lock_policyE2EE@Base 2.0.1
 (arch= armel armhf)_ZTISt19_Sp_make_shared_tag@Base 2.0.1
 (arch=armel)_ZTISt23_Sp_counted_ptr_inplaceIN5Peony11FileWatcherESaIS1_ELN9__gnu_cxx12_Lock_policyE1EE@Base 2.0.1
 (arch=amd64)_ZTISt23_Sp_counted_ptr_inplaceIN5Peony11FileWatcherESaIS1_ELN9__gnu_cxx12_Lock_policyE2EE@Base 2.0.1
 (arch=armel)_ZTISt23_Sp_counted_ptr_inplaceIN5Peony12FileMetaInfoESaIS1_ELN9__gnu_cxx12_Lock_policyE1EE@Base 2.0.1
 (arch=amd64)_ZTISt23_Sp_counted_ptr_inplaceIN5Peony12FileMetaInfoESaIS1_ELN9__gnu_cxx12_Lock_policyE2EE@Base 2.0.1
 (arch=armel)_ZTISt23_Sp_counted_ptr_inplaceIN5Peony13GErrorWrapperESaIS1_ELN9__gnu_cxx12_Lock_policyE1EE@Base 2.0.1
 (arch=amd64)_ZTISt23_Sp_counted_ptr_inplaceIN5Peony13GErrorWrapperESaIS1_ELN9__gnu_cxx12_Lock_policyE2EE@Base 2.0.1
 (arch=armel)_ZTISt23_Sp_counted_ptr_inplaceIN5Peony14FileEnumeratorESaIS1_ELN9__gnu_cxx12_Lock_policyE1EE@Base 2.0.1
 (arch=amd64)_ZTISt23_Sp_counted_ptr_inplaceIN5Peony14FileEnumeratorESaIS1_ELN9__gnu_cxx12_Lock_policyE2EE@Base 2.0.1
 (arch=armel)_ZTISt23_Sp_counted_ptr_inplaceIN5Peony15GObjectTemplateI10_GFileInfoEESaIS3_ELN9__gnu_cxx12_Lock_policyE1EE@Base 2.0.1
 (arch=amd64)_ZTISt23_Sp_counted_ptr_inplaceIN5Peony15GObjectTemplateI10_GFileInfoEESaIS3_ELN9__gnu_cxx12_Lock_policyE2EE@Base 2.0.1
 (arch=armel)_ZTISt23_Sp_counted_ptr_inplaceIN5Peony15GObjectTemplateI12_GThemedIconEESaIS3_ELN9__gnu_cxx12_Lock_policyE1EE@Base 2.0.1
 (arch=amd64)_ZTISt23_Sp_counted_ptr_inplaceIN5Peony15GObjectTemplateI12_GThemedIconEESaIS3_ELN9__gnu_cxx12_Lock_policyE2EE@Base 2.0.1
 (arch=armel)_ZTISt23_Sp_counted_ptr_inplaceIN5Peony15GObjectTemplateI13_GCancellableEESaIS3_ELN9__gnu_cxx12_Lock_policyE1EE@Base 2.0.1
 (arch=amd64)_ZTISt23_Sp_counted_ptr_inplaceIN5Peony15GObjectTemplateI13_GCancellableEESaIS3_ELN9__gnu_cxx12_Lock_policyE2EE@Base 2.0.1
 (arch=armel)_ZTISt23_Sp_counted_ptr_inplaceIN5Peony15GObjectTemplateI13_GFileMonitorEESaIS3_ELN9__gnu_cxx12_Lock_policyE1EE@Base 2.0.1
 (arch=amd64)_ZTISt23_Sp_counted_ptr_inplaceIN5Peony15GObjectTemplateI13_GFileMonitorEESaIS3_ELN9__gnu_cxx12_Lock_policyE2EE@Base 2.0.1
 (arch=armel)_ZTISt23_Sp_counted_ptr_inplaceIN5Peony15GObjectTemplateI15_GVolumeMonitorEESaIS3_ELN9__gnu_cxx12_Lock_policyE1EE@Base 2.0.1
 (arch=amd64)_ZTISt23_Sp_counted_ptr_inplaceIN5Peony15GObjectTemplateI15_GVolumeMonitorEESaIS3_ELN9__gnu_cxx12_Lock_policyE2EE@Base 2.0.1
 (arch=armel)_ZTISt23_Sp_counted_ptr_inplaceIN5Peony15GObjectTemplateI16_GFileEnumeratorEESaIS3_ELN9__gnu_cxx12_Lock_policyE1EE@Base 2.0.1
 (arch=amd64)_ZTISt23_Sp_counted_ptr_inplaceIN5Peony15GObjectTemplateI16_GFileEnumeratorEESaIS3_ELN9__gnu_cxx12_Lock_policyE2EE@Base 2.0.1
 (arch=armel)_ZTISt23_Sp_counted_ptr_inplaceIN5Peony15GObjectTemplateI6_GFileEESaIS3_ELN9__gnu_cxx12_Lock_policyE1EE@Base 2.0.1
 (arch=amd64)_ZTISt23_Sp_counted_ptr_inplaceIN5Peony15GObjectTemplateI6_GFileEESaIS3_ELN9__gnu_cxx12_Lock_policyE2EE@Base 2.0.1
 (arch=armel)_ZTISt23_Sp_counted_ptr_inplaceIN5Peony15GObjectTemplateI6_GIconEESaIS3_ELN9__gnu_cxx12_Lock_policyE1EE@Base 2.0.1
 (arch=amd64)_ZTISt23_Sp_counted_ptr_inplaceIN5Peony15GObjectTemplateI6_GIconEESaIS3_ELN9__gnu_cxx12_Lock_policyE2EE@Base 2.0.1
 (arch=armel)_ZTISt23_Sp_counted_ptr_inplaceIN5Peony15GObjectTemplateI7_GDriveEESaIS3_ELN9__gnu_cxx12_Lock_policyE1EE@Base 2.0.1
 (arch=amd64)_ZTISt23_Sp_counted_ptr_inplaceIN5Peony15GObjectTemplateI7_GDriveEESaIS3_ELN9__gnu_cxx12_Lock_policyE2EE@Base 2.0.1
 (arch=armel)_ZTISt23_Sp_counted_ptr_inplaceIN5Peony15GObjectTemplateI7_GMountEESaIS3_ELN9__gnu_cxx12_Lock_policyE1EE@Base 2.0.1
 (arch=amd64)_ZTISt23_Sp_counted_ptr_inplaceIN5Peony15GObjectTemplateI7_GMountEESaIS3_ELN9__gnu_cxx12_Lock_policyE2EE@Base 2.0.1
 (arch=armel)_ZTISt23_Sp_counted_ptr_inplaceIN5Peony15GObjectTemplateI8_GVolumeEESaIS3_ELN9__gnu_cxx12_Lock_policyE1EE@Base 2.0.1
 (arch=amd64)_ZTISt23_Sp_counted_ptr_inplaceIN5Peony15GObjectTemplateI8_GVolumeEESaIS3_ELN9__gnu_cxx12_Lock_policyE2EE@Base 2.0.1
 (arch=armel)_ZTISt23_Sp_counted_ptr_inplaceIN5Peony17FileOperationInfoESaIS1_ELN9__gnu_cxx12_Lock_policyE1EE@Base 2.0.1
 (arch=amd64)_ZTISt23_Sp_counted_ptr_inplaceIN5Peony17FileOperationInfoESaIS1_ELN9__gnu_cxx12_Lock_policyE2EE@Base 2.0.1
 (arch=armel)_ZTISt23_Sp_counted_ptr_inplaceIN5Peony5DriveESaIS1_ELN9__gnu_cxx12_Lock_policyE1EE@Base 2.0.1
 (arch=amd64)_ZTISt23_Sp_counted_ptr_inplaceIN5Peony5DriveESaIS1_ELN9__gnu_cxx12_Lock_policyE2EE@Base 2.0.1
 (arch=armel)_ZTISt23_Sp_counted_ptr_inplaceIN5Peony5MountESaIS1_ELN9__gnu_cxx12_Lock_policyE1EE@Base 2.0.1
 (arch=amd64)_ZTISt23_Sp_counted_ptr_inplaceIN5Peony5MountESaIS1_ELN9__gnu_cxx12_Lock_policyE2EE@Base 2.0.1
 (arch=armel)_ZTISt23_Sp_counted_ptr_inplaceIN5Peony6VolumeESaIS1_ELN9__gnu_cxx12_Lock_policyE1EE@Base 2.0.1
 (arch=amd64)_ZTISt23_Sp_counted_ptr_inplaceIN5Peony6VolumeESaIS1_ELN9__gnu_cxx12_Lock_policyE2EE@Base 2.0.1
 (arch=armel)_ZTISt23_Sp_counted_ptr_inplaceIN5Peony8FileInfoESaIS1_ELN9__gnu_cxx12_Lock_policyE1EE@Base 2.0.1
 (arch=amd64)_ZTISt23_Sp_counted_ptr_inplaceIN5Peony8FileInfoESaIS1_ELN9__gnu_cxx12_Lock_policyE2EE@Base 2.0.1
 _ZTS13FileLabelItem@Base 2.1.0
 _ZTS14FileLabelModel@Base 2.1.0
 _ZTS16QFutureInterfaceIvE@Base 2.0.0
 _ZTS18BorderShadowEffect@Base 2.1.0
 _ZTS18GenericThumbnailer@Base 2.1.0
 _ZTS19ConnectServerDialog@Base 2.0.0
 _ZTS22LocationBarButtonStyle@Base 2.2.0
 _ZTSN12QtConcurrent15RunFunctionTaskIvEE@Base 2.0.0
 _ZTSN12QtConcurrent19RunFunctionTaskBaseIvEE@Base 2.0.0
 _ZTSN5Peony11FileInfoJobE@Base 2.0.0
 _ZTSN5Peony11FileWatcherE@Base 2.0.0
 _ZTSN5Peony11LocationBarE@Base 2.0.0
 _ZTSN5Peony11SideBarMenuE@Base 2.0.0
 _ZTSN5Peony12PathBarModelE@Base 2.0.0
 _ZTSN5Peony12SideBarModelE@Base 2.0.0
 _ZTSN5Peony12ThumbnailJobE@Base 2.1.0
 _ZTSN5Peony13DirectoryView13IconViewStyleE@Base 2.0.0
 _ZTSN5Peony13DirectoryView13ListViewStyleE@Base 2.2.0
 _ZTSN5Peony13DirectoryView14IconViewEditorE@Base 2.0.0
 _ZTSN5Peony13DirectoryView16IconViewDelegateE@Base 2.0.0
#MISSING: 2.1.0# _ZTSN5Peony13DirectoryView17StandardViewProxyE@Base 2.0.0
 _ZTSN5Peony13DirectoryView19IconViewIndexWidgetE@Base 2.0.0
 _ZTSN5Peony13DirectoryView8IconViewE@Base 2.0.0
 _ZTSN5Peony13DirectoryView8ListViewE@Base 2.0.0
 _ZTSN5Peony13DirectoryView9IconView2E@Base 2.0.0
 _ZTSN5Peony13DirectoryView9ListView2E@Base 2.0.0
 _ZTSN5Peony13FMWindowIfaceE@Base 2.1.0
 _ZTSN5Peony13FileItemModelE@Base 2.0.0
 _ZTSN5Peony13FileOperationE@Base 2.0.0
 _ZTSN5Peony13IconContainerE@Base 2.0.0
 _ZTSN5Peony13NavigationBarE@Base 2.0.0
 _ZTSN5Peony13PathCompleterE@Base 2.0.0
 _ZTSN5Peony13PluginManagerE@Base 2.0.0
 _ZTSN5Peony13VolumeManagerE@Base 2.0.0
 _ZTSN5Peony14ClipboardUtilsE@Base 2.0.0
 _ZTSN5Peony14FileEnumeratorE@Base 2.0.0
 _ZTSN5Peony14GlobalSettingsE@Base 2.0.0
 _ZTSN5Peony14MountOperationE@Base 2.0.0
 _ZTSN5Peony15BookMarkManagerE@Base 2.0.0
 _ZTSN5Peony15FMWindowFactoryE@Base 2.1.0
 _ZTSN5Peony15FileLauchDialogE@Base 2.0.0
 _ZTSN5Peony15FilePreviewPageE@Base 2.0.0
 _ZTSN5Peony15IconViewFactoryE@Base 2.0.0
 _ZTSN5Peony15ListViewFactoryE@Base 2.0.0
 _ZTSN5Peony15PluginInterfaceE@Base 2.0.0
 _ZTSN5Peony15SideBarDelegateE@Base 2.0.0
 _ZTSN5Peony16AdvanceSearchBarE@Base 2.0.0
 _ZTSN5Peony16FileLaunchActionE@Base 2.0.0
 _ZTSN5Peony16FileNodeReporterE@Base 2.0.0
 _ZTSN5Peony16IconViewFactory2E@Base 2.0.0
 _ZTSN5Peony16ListViewDelegateE@Base 2.0.0
 _ZTSN5Peony16ListViewFactory2E@Base 2.0.0
 _ZTSN5Peony16PreviewPageIfaceE@Base 2.0.0
 _ZTSN5Peony16PropertiesWindowE@Base 2.0.0
 _ZTSN5Peony16SearchVFSManagerE@Base 2.0.0
 _ZTSN5Peony16StylePluginIfaceE@Base 2.0.0
 _ZTSN5Peony16ThumbnailManagerE@Base 2.0.0
 _ZTSN5Peony16ToolBarContainerE@Base 2.0.0
#MISSING: 2.1.0# _ZTSN5Peony16ViewFactoryModelE@Base 2.0.0
 _ZTSN5Peony17DirectoryViewMenuE@Base 2.0.0
 _ZTSN5Peony17FileCopyOperationE@Base 2.0.0
 _ZTSN5Peony17FileLaunchManagerE@Base 2.0.0
 _ZTSN5Peony17FileLinkOperationE@Base 2.0.0
 _ZTSN5Peony17FileMoveOperationE@Base 2.0.0
 _ZTSN5Peony17FileOperationInfoE@Base 2.0.0
 _ZTSN5Peony17MenuPluginManagerE@Base 2.0.0
 _ZTSN5Peony17NavigationToolBarE@Base 2.0.0
 _ZTSN5Peony17ViewFactoryModel2E@Base 2.0.0
 _ZTSN5Peony18ComplementaryStyleE@Base 2.0.0
 _ZTSN5Peony18DefaultPreviewPageE@Base 2.0.0
 _ZTSN5Peony18DirectoryViewIfaceE@Base 2.0.0
 _ZTSN5Peony18FileCountOperationE@Base 2.0.0
 _ZTSN5Peony18FileTrashOperationE@Base 2.0.0
 _ZTSN5Peony18IconContainerStyleE@Base 2.1.0
 _ZTSN5Peony18SearchBarContainerE@Base 2.1.0
 _ZTSN5Peony19AdvancedLocationBarE@Base 2.0.0
 _ZTSN5Peony19BasicPropertiesPageE@Base 2.0.0
 _ZTSN5Peony19DirectoryViewWidgetE@Base 2.0.0
 _ZTSN5Peony19FileDeleteOperationE@Base 2.0.0
 _ZTSN5Peony19FileRenameOperationE@Base 2.0.0
 _ZTSN5Peony19MenuPluginInterfaceE@Base 2.0.0
 _ZTSN5Peony19SideBarAbstractItemE@Base 2.0.0
 _ZTSN5Peony19SideBarFavoriteItemE@Base 2.0.0
 _ZTSN5Peony19SideBarPersonalItemE@Base 2.0.0
 _ZTSN5Peony20FileOperationManagerE@Base 2.0.0
 _ZTSN5Peony20FileUntrashOperationE@Base 2.0.0
 _ZTSN5Peony20PreviewOptionToolBarE@Base 2.0.0
 _ZTSN5Peony20PreviewPageContainerE@Base 2.0.0
 _ZTSN5Peony20SideBarSeparatorItemE@Base 2.0.0
 _ZTSN5Peony21SideBarFileSystemItemE@Base 2.0.0
 _ZTSN5Peony22ComputerPropertiesPageE@Base 2.0.0
 _ZTSN5Peony22DirectoryViewContainerE@Base 2.0.0
 _ZTSN5Peony22PreviewPagePluginIfaceE@Base 2.0.0
 _ZTSN5Peony23CreateTemplateOperationE@Base 2.0.0
 _ZTSN5Peony23DirectoryViewProxyIfaceE@Base 2.0.0
 _ZTSN5Peony23PropertiesWindowPrivateE@Base 2.0.0
 _ZTSN5Peony24CreateLinkInternalPluginE@Base 2.0.0
 _ZTSN5Peony24DirectoryViewPluginIfaceE@Base 2.0.0
 _ZTSN5Peony24FileOperationErrorDialogE@Base 2.0.0
 _ZTSN5Peony24FileOperationPreparePageE@Base 2.0.0
 _ZTSN5Peony25DefaultPreviewPageFactoryE@Base 2.0.0
 _ZTSN5Peony25DirectoryViewPluginIface2E@Base 2.0.0
 _ZTSN5Peony25FileOperationErrorHandlerE@Base 2.0.0
 _ZTSN5Peony25FileOperationProgressPageE@Base 2.0.0
 _ZTSN5Peony25FileOperationRollbackPageE@Base 2.0.0
 _ZTSN5Peony25PermissionsPropertiesPageE@Base 2.0.0
 _ZTSN5Peony25PreviewPageFactoryManagerE@Base 2.0.0
 _ZTSN5Peony26BasicPropertiesPageFactoryE@Base 2.0.0
#MISSING: 2.1.0# _ZTSN5Peony26ViewFactorySortFilterModelE@Base 2.0.0
#MISSING: 2.1.0# _ZTSN5Peony27DirectoryViewFactoryManagerE@Base 2.0.0
 _ZTSN5Peony27FileLabelInternalMenuPluginE@Base 2.1.0
 _ZTSN5Peony27FileOperationProgressWizardE@Base 2.0.0
 _ZTSN5Peony27SideBarProxyFilterSortModelE@Base 2.0.0
 _ZTSN5Peony27ToolBarExtensionActionIfaceE@Base 2.0.0
 _ZTSN5Peony27ViewFactorySortFilterModel2E@Base 2.0.0
 _ZTSN5Peony28DirectoryViewFactoryManager2E@Base 2.0.0
 _ZTSN5Peony28FileItemProxyFilterSortModelE@Base 2.0.0
 _ZTSN5Peony28RecentAndTrashPropertiesPageE@Base 2.0.0
 _ZTSN5Peony29ComputerPropertiesPageFactoryE@Base 2.0.0
 _ZTSN5Peony29PropertiesWindowPluginManagerE@Base 2.0.0
 _ZTSN5Peony30FileOperationAfterProgressPageE@Base 2.0.0
 _ZTSN5Peony32PermissionsPropertiesPageFactoryE@Base 2.0.0
 _ZTSN5Peony34PropertiesWindowTabPagePluginIfaceE@Base 2.0.0
 _ZTSN5Peony35RecentAndTrashPropertiesPageFactoryE@Base 2.0.0
 _ZTSN5Peony7SideBarE@Base 2.0.0
 _ZTSN5Peony7TabPageE@Base 2.0.0
 _ZTSN5Peony7ToolBarE@Base 2.0.0
 _ZTSN5Peony8FMWindowE@Base 2.0.0
 _ZTSN5Peony8FileInfoE@Base 2.0.0
 _ZTSN5Peony8FileItemE@Base 2.0.0
 _ZTSN5Peony8PathEditE@Base 2.0.0
 _ZTSN5Peony8TextEditE@Base 2.0.0
 _ZTSN5Peony9SearchBarE@Base 2.0.0
 _ZTSN5Peony9StatusBarE@Base 2.0.0
 (arch=armel)_ZTSN9__gnu_cxx24__concurrence_lock_errorE@Base 2.0.1
 (arch=armel)_ZTSN9__gnu_cxx26__concurrence_unlock_errorE@Base 2.0.1
 (arch=armel)_ZTSN9__gnu_cxx7__mutexE@Base 2.0.1
 (arch=armel)_ZTSSt11_Mutex_baseILN9__gnu_cxx12_Lock_policyE1EE@Base 2.0.1
 (arch=amd64)_ZTSSt11_Mutex_baseILN9__gnu_cxx12_Lock_policyE2EE@Base 2.0.1
 (arch=armel)_ZTSSt16_Sp_counted_baseILN9__gnu_cxx12_Lock_policyE1EE@Base 2.0.1
 (arch=amd64)_ZTSSt16_Sp_counted_baseILN9__gnu_cxx12_Lock_policyE2EE@Base 2.0.1
 _ZTSSt19_Sp_make_shared_tag@Base 2.0.0
 (arch=armel)_ZTSSt23_Sp_counted_ptr_inplaceIN5Peony11FileWatcherESaIS1_ELN9__gnu_cxx12_Lock_policyE1EE@Base 2.0.1
 (arch=amd64)_ZTSSt23_Sp_counted_ptr_inplaceIN5Peony11FileWatcherESaIS1_ELN9__gnu_cxx12_Lock_policyE2EE@Base 2.0.1
 (arch=armel)_ZTSSt23_Sp_counted_ptr_inplaceIN5Peony12FileMetaInfoESaIS1_ELN9__gnu_cxx12_Lock_policyE1EE@Base 2.0.1
 (arch=amd64)_ZTSSt23_Sp_counted_ptr_inplaceIN5Peony12FileMetaInfoESaIS1_ELN9__gnu_cxx12_Lock_policyE2EE@Base 2.0.1
 (arch=armel)_ZTSSt23_Sp_counted_ptr_inplaceIN5Peony13GErrorWrapperESaIS1_ELN9__gnu_cxx12_Lock_policyE1EE@Base 2.0.1
 (arch=amd64)_ZTSSt23_Sp_counted_ptr_inplaceIN5Peony13GErrorWrapperESaIS1_ELN9__gnu_cxx12_Lock_policyE2EE@Base 2.0.1
 (arch=armel)_ZTSSt23_Sp_counted_ptr_inplaceIN5Peony14FileEnumeratorESaIS1_ELN9__gnu_cxx12_Lock_policyE1EE@Base 2.0.1
 (arch=amd64)_ZTSSt23_Sp_counted_ptr_inplaceIN5Peony14FileEnumeratorESaIS1_ELN9__gnu_cxx12_Lock_policyE2EE@Base 2.0.1
 (arch=armel)_ZTSSt23_Sp_counted_ptr_inplaceIN5Peony15GObjectTemplateI10_GFileInfoEESaIS3_ELN9__gnu_cxx12_Lock_policyE1EE@Base 2.0.1
 (arch=amd64)_ZTSSt23_Sp_counted_ptr_inplaceIN5Peony15GObjectTemplateI10_GFileInfoEESaIS3_ELN9__gnu_cxx12_Lock_policyE2EE@Base 2.0.1
 (arch=armel)_ZTSSt23_Sp_counted_ptr_inplaceIN5Peony15GObjectTemplateI12_GThemedIconEESaIS3_ELN9__gnu_cxx12_Lock_policyE1EE@Base 2.0.1
 (arch=amd64)_ZTSSt23_Sp_counted_ptr_inplaceIN5Peony15GObjectTemplateI12_GThemedIconEESaIS3_ELN9__gnu_cxx12_Lock_policyE2EE@Base 2.0.1
 (arch=armel)_ZTSSt23_Sp_counted_ptr_inplaceIN5Peony15GObjectTemplateI13_GCancellableEESaIS3_ELN9__gnu_cxx12_Lock_policyE1EE@Base 2.0.1
 (arch=amd64)_ZTSSt23_Sp_counted_ptr_inplaceIN5Peony15GObjectTemplateI13_GCancellableEESaIS3_ELN9__gnu_cxx12_Lock_policyE2EE@Base 2.0.1
 (arch=armel)_ZTSSt23_Sp_counted_ptr_inplaceIN5Peony15GObjectTemplateI13_GFileMonitorEESaIS3_ELN9__gnu_cxx12_Lock_policyE1EE@Base 2.0.1
 (arch=amd64)_ZTSSt23_Sp_counted_ptr_inplaceIN5Peony15GObjectTemplateI13_GFileMonitorEESaIS3_ELN9__gnu_cxx12_Lock_policyE2EE@Base 2.0.1
 (arch=armel)_ZTSSt23_Sp_counted_ptr_inplaceIN5Peony15GObjectTemplateI15_GVolumeMonitorEESaIS3_ELN9__gnu_cxx12_Lock_policyE1EE@Base 2.0.1
 (arch=amd64)_ZTSSt23_Sp_counted_ptr_inplaceIN5Peony15GObjectTemplateI15_GVolumeMonitorEESaIS3_ELN9__gnu_cxx12_Lock_policyE2EE@Base 2.0.1
 (arch=armel)_ZTSSt23_Sp_counted_ptr_inplaceIN5Peony15GObjectTemplateI16_GFileEnumeratorEESaIS3_ELN9__gnu_cxx12_Lock_policyE1EE@Base 2.0.1
 (arch=amd64)_ZTSSt23_Sp_counted_ptr_inplaceIN5Peony15GObjectTemplateI16_GFileEnumeratorEESaIS3_ELN9__gnu_cxx12_Lock_policyE2EE@Base 2.0.1
 (arch=armel)_ZTSSt23_Sp_counted_ptr_inplaceIN5Peony15GObjectTemplateI6_GFileEESaIS3_ELN9__gnu_cxx12_Lock_policyE1EE@Base 2.0.1
 (arch=amd64)_ZTSSt23_Sp_counted_ptr_inplaceIN5Peony15GObjectTemplateI6_GFileEESaIS3_ELN9__gnu_cxx12_Lock_policyE2EE@Base 2.0.1
 (arch=armel)_ZTSSt23_Sp_counted_ptr_inplaceIN5Peony15GObjectTemplateI6_GIconEESaIS3_ELN9__gnu_cxx12_Lock_policyE1EE@Base 2.0.1
 (arch=amd64)_ZTSSt23_Sp_counted_ptr_inplaceIN5Peony15GObjectTemplateI6_GIconEESaIS3_ELN9__gnu_cxx12_Lock_policyE2EE@Base 2.0.1
 (arch=armel)_ZTSSt23_Sp_counted_ptr_inplaceIN5Peony15GObjectTemplateI7_GDriveEESaIS3_ELN9__gnu_cxx12_Lock_policyE1EE@Base 2.0.1
 (arch=amd64)_ZTSSt23_Sp_counted_ptr_inplaceIN5Peony15GObjectTemplateI7_GDriveEESaIS3_ELN9__gnu_cxx12_Lock_policyE2EE@Base 2.0.1
 (arch=armel)_ZTSSt23_Sp_counted_ptr_inplaceIN5Peony15GObjectTemplateI7_GMountEESaIS3_ELN9__gnu_cxx12_Lock_policyE1EE@Base 2.0.1
 (arch=amd64)_ZTSSt23_Sp_counted_ptr_inplaceIN5Peony15GObjectTemplateI7_GMountEESaIS3_ELN9__gnu_cxx12_Lock_policyE2EE@Base 2.0.1
 (arch=armel)_ZTSSt23_Sp_counted_ptr_inplaceIN5Peony15GObjectTemplateI8_GVolumeEESaIS3_ELN9__gnu_cxx12_Lock_policyE1EE@Base 2.0.1
 (arch=amd64)_ZTSSt23_Sp_counted_ptr_inplaceIN5Peony15GObjectTemplateI8_GVolumeEESaIS3_ELN9__gnu_cxx12_Lock_policyE2EE@Base 2.0.1
 (arch=armel)_ZTSSt23_Sp_counted_ptr_inplaceIN5Peony17FileOperationInfoESaIS1_ELN9__gnu_cxx12_Lock_policyE1EE@Base 2.0.1
 (arch=amd64)_ZTSSt23_Sp_counted_ptr_inplaceIN5Peony17FileOperationInfoESaIS1_ELN9__gnu_cxx12_Lock_policyE2EE@Base 2.0.1
 (arch=armel)_ZTSSt23_Sp_counted_ptr_inplaceIN5Peony5DriveESaIS1_ELN9__gnu_cxx12_Lock_policyE1EE@Base 2.0.1
 (arch=amd64)_ZTSSt23_Sp_counted_ptr_inplaceIN5Peony5DriveESaIS1_ELN9__gnu_cxx12_Lock_policyE2EE@Base 2.0.1
 (arch=armel)_ZTSSt23_Sp_counted_ptr_inplaceIN5Peony5MountESaIS1_ELN9__gnu_cxx12_Lock_policyE1EE@Base 2.0.1
 (arch=amd64)_ZTSSt23_Sp_counted_ptr_inplaceIN5Peony5MountESaIS1_ELN9__gnu_cxx12_Lock_policyE2EE@Base 2.0.1
 (arch=armel)_ZTSSt23_Sp_counted_ptr_inplaceIN5Peony6VolumeESaIS1_ELN9__gnu_cxx12_Lock_policyE1EE@Base 2.0.1
 (arch=amd64)_ZTSSt23_Sp_counted_ptr_inplaceIN5Peony6VolumeESaIS1_ELN9__gnu_cxx12_Lock_policyE2EE@Base 2.0.1
 (arch=armel)_ZTSSt23_Sp_counted_ptr_inplaceIN5Peony8FileInfoESaIS1_ELN9__gnu_cxx12_Lock_policyE1EE@Base 2.0.1
 (arch=amd64)_ZTSSt23_Sp_counted_ptr_inplaceIN5Peony8FileInfoESaIS1_ELN9__gnu_cxx12_Lock_policyE2EE@Base 2.0.1
 _ZTV13FileLabelItem@Base 2.1.0
 _ZTV14FileLabelModel@Base 2.1.0
 _ZTV16QFutureInterfaceIvE@Base 2.0.0
 _ZTV18BorderShadowEffect@Base 2.1.0
 _ZTV18GenericThumbnailer@Base 2.1.0
 _ZTV19ConnectServerDialog@Base 2.0.0
 _ZTV22LocationBarButtonStyle@Base 2.2.0
 _ZTVN12QtConcurrent19RunFunctionTaskBaseIvEE@Base 2.0.0
 _ZTVN5Peony11FileInfoJobE@Base 2.0.0
 _ZTVN5Peony11FileWatcherE@Base 2.0.0
 _ZTVN5Peony11LocationBarE@Base 2.0.0
 _ZTVN5Peony11SideBarMenuE@Base 2.0.0
 _ZTVN5Peony12PathBarModelE@Base 2.0.0
 _ZTVN5Peony12SideBarModelE@Base 2.0.0
 _ZTVN5Peony12ThumbnailJobE@Base 2.1.0
 _ZTVN5Peony13DirectoryView13IconViewStyleE@Base 2.0.0
 _ZTVN5Peony13DirectoryView13ListViewStyleE@Base 2.2.0
 _ZTVN5Peony13DirectoryView14IconViewEditorE@Base 2.0.0
 _ZTVN5Peony13DirectoryView16IconViewDelegateE@Base 2.0.0
#MISSING: 2.1.0# _ZTVN5Peony13DirectoryView17StandardViewProxyE@Base 2.0.0
 _ZTVN5Peony13DirectoryView19IconViewIndexWidgetE@Base 2.0.0
 _ZTVN5Peony13DirectoryView8IconViewE@Base 2.0.0
 _ZTVN5Peony13DirectoryView8ListViewE@Base 2.0.0
 _ZTVN5Peony13DirectoryView9IconView2E@Base 2.0.0
 _ZTVN5Peony13DirectoryView9ListView2E@Base 2.0.0
 _ZTVN5Peony13FileItemModelE@Base 2.0.0
 _ZTVN5Peony13FileOperationE@Base 2.0.0
 _ZTVN5Peony13IconContainerE@Base 2.0.0
 _ZTVN5Peony13NavigationBarE@Base 2.0.0
 _ZTVN5Peony13PathCompleterE@Base 2.0.0
 _ZTVN5Peony13PluginManagerE@Base 2.0.0
 _ZTVN5Peony13VolumeManagerE@Base 2.0.0
 _ZTVN5Peony14ClipboardUtilsE@Base 2.0.0
 _ZTVN5Peony14FileEnumeratorE@Base 2.0.0
 _ZTVN5Peony14GlobalSettingsE@Base 2.0.0
 _ZTVN5Peony14MountOperationE@Base 2.0.0
 _ZTVN5Peony15BookMarkManagerE@Base 2.0.0
 _ZTVN5Peony15FMWindowFactoryE@Base 2.1.0
 _ZTVN5Peony15FileLauchDialogE@Base 2.0.0
 _ZTVN5Peony15FilePreviewPageE@Base 2.0.0
 _ZTVN5Peony15IconViewFactoryE@Base 2.0.0
 _ZTVN5Peony15ListViewFactoryE@Base 2.0.0
 _ZTVN5Peony15SideBarDelegateE@Base 2.0.0
 _ZTVN5Peony16AdvanceSearchBarE@Base 2.0.0
 _ZTVN5Peony16FileLaunchActionE@Base 2.0.0
 _ZTVN5Peony16FileNodeReporterE@Base 2.0.0
 _ZTVN5Peony16IconViewFactory2E@Base 2.0.0
 _ZTVN5Peony16ListViewDelegateE@Base 2.0.0
 _ZTVN5Peony16ListViewFactory2E@Base 2.0.0
 _ZTVN5Peony16PropertiesWindowE@Base 2.0.0
 _ZTVN5Peony16SearchVFSManagerE@Base 2.0.0
 _ZTVN5Peony16ThumbnailManagerE@Base 2.0.0
 _ZTVN5Peony16ToolBarContainerE@Base 2.0.0
#MISSING: 2.1.0# _ZTVN5Peony16ViewFactoryModelE@Base 2.0.0
 _ZTVN5Peony17DirectoryViewMenuE@Base 2.0.0
 _ZTVN5Peony17FileCopyOperationE@Base 2.0.0
 _ZTVN5Peony17FileLaunchManagerE@Base 2.0.0
 _ZTVN5Peony17FileLinkOperationE@Base 2.0.0
 _ZTVN5Peony17FileMoveOperationE@Base 2.0.0
 _ZTVN5Peony17FileOperationInfoE@Base 2.0.0
 _ZTVN5Peony17MenuPluginManagerE@Base 2.0.0
 _ZTVN5Peony17NavigationToolBarE@Base 2.0.0
 _ZTVN5Peony17ViewFactoryModel2E@Base 2.0.0
 _ZTVN5Peony18ComplementaryStyleE@Base 2.0.0
 _ZTVN5Peony18DefaultPreviewPageE@Base 2.0.0
 _ZTVN5Peony18FileCountOperationE@Base 2.0.0
 _ZTVN5Peony18FileTrashOperationE@Base 2.0.0
 _ZTVN5Peony18IconContainerStyleE@Base 2.1.0
 _ZTVN5Peony18SearchBarContainerE@Base 2.1.0
 _ZTVN5Peony19AdvancedLocationBarE@Base 2.0.0
 _ZTVN5Peony19BasicPropertiesPageE@Base 2.0.0
 _ZTVN5Peony19DirectoryViewWidgetE@Base 2.0.0
 _ZTVN5Peony19FileDeleteOperationE@Base 2.0.0
 _ZTVN5Peony19FileRenameOperationE@Base 2.0.0
 _ZTVN5Peony19SideBarAbstractItemE@Base 2.0.0
 _ZTVN5Peony19SideBarFavoriteItemE@Base 2.0.0
 _ZTVN5Peony19SideBarPersonalItemE@Base 2.0.0
 _ZTVN5Peony20FileOperationManagerE@Base 2.0.0
 _ZTVN5Peony20FileUntrashOperationE@Base 2.0.0
 _ZTVN5Peony20PreviewOptionToolBarE@Base 2.0.0
 _ZTVN5Peony20PreviewPageContainerE@Base 2.0.0
 _ZTVN5Peony20SideBarSeparatorItemE@Base 2.0.0
 _ZTVN5Peony21SideBarFileSystemItemE@Base 2.0.0
 _ZTVN5Peony22ComputerPropertiesPageE@Base 2.0.0
 _ZTVN5Peony22DirectoryViewContainerE@Base 2.0.0
 _ZTVN5Peony23CreateTemplateOperationE@Base 2.0.0
 _ZTVN5Peony23DirectoryViewProxyIfaceE@Base 2.0.0
 _ZTVN5Peony23PropertiesWindowPrivateE@Base 2.0.0
 _ZTVN5Peony24CreateLinkInternalPluginE@Base 2.0.0
 _ZTVN5Peony24FileOperationErrorDialogE@Base 2.0.0
 _ZTVN5Peony24FileOperationPreparePageE@Base 2.0.0
 _ZTVN5Peony25DefaultPreviewPageFactoryE@Base 2.0.0
 _ZTVN5Peony25FileOperationErrorHandlerE@Base 2.0.0
 _ZTVN5Peony25FileOperationProgressPageE@Base 2.0.0
 _ZTVN5Peony25FileOperationRollbackPageE@Base 2.0.0
 _ZTVN5Peony25PermissionsPropertiesPageE@Base 2.0.0
 _ZTVN5Peony25PreviewPageFactoryManagerE@Base 2.0.0
 _ZTVN5Peony26BasicPropertiesPageFactoryE@Base 2.0.0
#MISSING: 2.1.0# _ZTVN5Peony26ViewFactorySortFilterModelE@Base 2.0.0
#MISSING: 2.1.0# _ZTVN5Peony27DirectoryViewFactoryManagerE@Base 2.0.0
 _ZTVN5Peony27FileLabelInternalMenuPluginE@Base 2.1.0
 _ZTVN5Peony27FileOperationProgressWizardE@Base 2.0.0
 _ZTVN5Peony27SideBarProxyFilterSortModelE@Base 2.0.0
 _ZTVN5Peony27ToolBarExtensionActionIfaceE@Base 2.0.0
 _ZTVN5Peony27ViewFactorySortFilterModel2E@Base 2.0.0
 _ZTVN5Peony28DirectoryViewFactoryManager2E@Base 2.0.0
 _ZTVN5Peony28FileItemProxyFilterSortModelE@Base 2.0.0
 _ZTVN5Peony28RecentAndTrashPropertiesPageE@Base 2.0.0
 _ZTVN5Peony29ComputerPropertiesPageFactoryE@Base 2.0.0
 _ZTVN5Peony29PropertiesWindowPluginManagerE@Base 2.0.0
 _ZTVN5Peony30FileOperationAfterProgressPageE@Base 2.0.0
 _ZTVN5Peony32PermissionsPropertiesPageFactoryE@Base 2.0.0
 _ZTVN5Peony35RecentAndTrashPropertiesPageFactoryE@Base 2.0.0
 _ZTVN5Peony7SideBarE@Base 2.0.0
 _ZTVN5Peony7TabPageE@Base 2.0.0
 _ZTVN5Peony7ToolBarE@Base 2.0.0
 _ZTVN5Peony8FMWindowE@Base 2.0.0
 _ZTVN5Peony8FileInfoE@Base 2.0.0
 _ZTVN5Peony8FileItemE@Base 2.0.0
 _ZTVN5Peony8PathEditE@Base 2.0.0
 _ZTVN5Peony8TextEditE@Base 2.0.0
 _ZTVN5Peony9SearchBarE@Base 2.0.0
 _ZTVN5Peony9StatusBarE@Base 2.0.0
 (arch=armel)_ZTVN9__gnu_cxx24__concurrence_lock_errorE@Base 2.0.1
 (arch=armel)_ZTVN9__gnu_cxx26__concurrence_unlock_errorE@Base 2.0.1
 (arch=armel)_ZTVSt23_Sp_counted_ptr_inplaceIN5Peony11FileWatcherESaIS1_ELN9__gnu_cxx12_Lock_policyE1EE@Base 2.0.1
 (arch=amd64)_ZTVSt23_Sp_counted_ptr_inplaceIN5Peony11FileWatcherESaIS1_ELN9__gnu_cxx12_Lock_policyE2EE@Base 2.0.1
 (arch=armel)_ZTVSt23_Sp_counted_ptr_inplaceIN5Peony12FileMetaInfoESaIS1_ELN9__gnu_cxx12_Lock_policyE1EE@Base 2.0.1
 (arch=amd64)_ZTVSt23_Sp_counted_ptr_inplaceIN5Peony12FileMetaInfoESaIS1_ELN9__gnu_cxx12_Lock_policyE2EE@Base 2.0.1
 (arch=armel)_ZTVSt23_Sp_counted_ptr_inplaceIN5Peony13GErrorWrapperESaIS1_ELN9__gnu_cxx12_Lock_policyE1EE@Base 2.0.1
 (arch=amd64)_ZTVSt23_Sp_counted_ptr_inplaceIN5Peony13GErrorWrapperESaIS1_ELN9__gnu_cxx12_Lock_policyE2EE@Base 2.0.1
 (arch=armel)_ZTVSt23_Sp_counted_ptr_inplaceIN5Peony14FileEnumeratorESaIS1_ELN9__gnu_cxx12_Lock_policyE1EE@Base 2.0.1
 (arch=amd64)_ZTVSt23_Sp_counted_ptr_inplaceIN5Peony14FileEnumeratorESaIS1_ELN9__gnu_cxx12_Lock_policyE2EE@Base 2.0.1
 (arch=armel)_ZTVSt23_Sp_counted_ptr_inplaceIN5Peony15GObjectTemplateI10_GFileInfoEESaIS3_ELN9__gnu_cxx12_Lock_policyE1EE@Base 2.0.1
 (arch=amd64)_ZTVSt23_Sp_counted_ptr_inplaceIN5Peony15GObjectTemplateI10_GFileInfoEESaIS3_ELN9__gnu_cxx12_Lock_policyE2EE@Base 2.0.1
 (arch=armel)_ZTVSt23_Sp_counted_ptr_inplaceIN5Peony15GObjectTemplateI12_GThemedIconEESaIS3_ELN9__gnu_cxx12_Lock_policyE1EE@Base 2.0.1
 (arch=amd64)_ZTVSt23_Sp_counted_ptr_inplaceIN5Peony15GObjectTemplateI12_GThemedIconEESaIS3_ELN9__gnu_cxx12_Lock_policyE2EE@Base 2.0.1
 (arch=armel)_ZTVSt23_Sp_counted_ptr_inplaceIN5Peony15GObjectTemplateI13_GCancellableEESaIS3_ELN9__gnu_cxx12_Lock_policyE1EE@Base 2.0.1
 (arch=amd64)_ZTVSt23_Sp_counted_ptr_inplaceIN5Peony15GObjectTemplateI13_GCancellableEESaIS3_ELN9__gnu_cxx12_Lock_policyE2EE@Base 2.0.1
 (arch=armel)_ZTVSt23_Sp_counted_ptr_inplaceIN5Peony15GObjectTemplateI13_GFileMonitorEESaIS3_ELN9__gnu_cxx12_Lock_policyE1EE@Base 2.0.1
 (arch=amd64)_ZTVSt23_Sp_counted_ptr_inplaceIN5Peony15GObjectTemplateI13_GFileMonitorEESaIS3_ELN9__gnu_cxx12_Lock_policyE2EE@Base 2.0.1
 (arch=armel)_ZTVSt23_Sp_counted_ptr_inplaceIN5Peony15GObjectTemplateI15_GVolumeMonitorEESaIS3_ELN9__gnu_cxx12_Lock_policyE1EE@Base 2.0.1
 (arch=amd64)_ZTVSt23_Sp_counted_ptr_inplaceIN5Peony15GObjectTemplateI15_GVolumeMonitorEESaIS3_ELN9__gnu_cxx12_Lock_policyE2EE@Base 2.0.1
 (arch=armel)_ZTVSt23_Sp_counted_ptr_inplaceIN5Peony15GObjectTemplateI16_GFileEnumeratorEESaIS3_ELN9__gnu_cxx12_Lock_policyE1EE@Base 2.0.1
 (arch=amd64)_ZTVSt23_Sp_counted_ptr_inplaceIN5Peony15GObjectTemplateI16_GFileEnumeratorEESaIS3_ELN9__gnu_cxx12_Lock_policyE2EE@Base 2.0.1
 (arch=armel)_ZTVSt23_Sp_counted_ptr_inplaceIN5Peony15GObjectTemplateI6_GFileEESaIS3_ELN9__gnu_cxx12_Lock_policyE1EE@Base 2.0.1
 (arch=amd64)_ZTVSt23_Sp_counted_ptr_inplaceIN5Peony15GObjectTemplateI6_GFileEESaIS3_ELN9__gnu_cxx12_Lock_policyE2EE@Base 2.0.1
 (arch=armel)_ZTVSt23_Sp_counted_ptr_inplaceIN5Peony15GObjectTemplateI6_GIconEESaIS3_ELN9__gnu_cxx12_Lock_policyE1EE@Base 2.0.1
 (arch=amd64)_ZTVSt23_Sp_counted_ptr_inplaceIN5Peony15GObjectTemplateI6_GIconEESaIS3_ELN9__gnu_cxx12_Lock_policyE2EE@Base 2.0.1
 (arch=armel)_ZTVSt23_Sp_counted_ptr_inplaceIN5Peony15GObjectTemplateI7_GDriveEESaIS3_ELN9__gnu_cxx12_Lock_policyE1EE@Base 2.0.1
 (arch=amd64)_ZTVSt23_Sp_counted_ptr_inplaceIN5Peony15GObjectTemplateI7_GDriveEESaIS3_ELN9__gnu_cxx12_Lock_policyE2EE@Base 2.0.1
 (arch=armel)_ZTVSt23_Sp_counted_ptr_inplaceIN5Peony15GObjectTemplateI7_GMountEESaIS3_ELN9__gnu_cxx12_Lock_policyE1EE@Base 2.0.1
 (arch=amd64)_ZTVSt23_Sp_counted_ptr_inplaceIN5Peony15GObjectTemplateI7_GMountEESaIS3_ELN9__gnu_cxx12_Lock_policyE2EE@Base 2.0.1
 (arch=armel)_ZTVSt23_Sp_counted_ptr_inplaceIN5Peony15GObjectTemplateI8_GVolumeEESaIS3_ELN9__gnu_cxx12_Lock_policyE1EE@Base 2.0.1
 (arch=amd64)_ZTVSt23_Sp_counted_ptr_inplaceIN5Peony15GObjectTemplateI8_GVolumeEESaIS3_ELN9__gnu_cxx12_Lock_policyE2EE@Base 2.0.1
 (arch=armel)_ZTVSt23_Sp_counted_ptr_inplaceIN5Peony17FileOperationInfoESaIS1_ELN9__gnu_cxx12_Lock_policyE1EE@Base 2.0.1
 (arch=amd64)_ZTVSt23_Sp_counted_ptr_inplaceIN5Peony17FileOperationInfoESaIS1_ELN9__gnu_cxx12_Lock_policyE2EE@Base 2.0.1
 (arch=armel)_ZTVSt23_Sp_counted_ptr_inplaceIN5Peony5DriveESaIS1_ELN9__gnu_cxx12_Lock_policyE1EE@Base 2.0.1
 (arch=amd64)_ZTVSt23_Sp_counted_ptr_inplaceIN5Peony5DriveESaIS1_ELN9__gnu_cxx12_Lock_policyE2EE@Base 2.0.1
 (arch=armel)_ZTVSt23_Sp_counted_ptr_inplaceIN5Peony5MountESaIS1_ELN9__gnu_cxx12_Lock_policyE1EE@Base 2.0.1
 (arch=amd64)_ZTVSt23_Sp_counted_ptr_inplaceIN5Peony5MountESaIS1_ELN9__gnu_cxx12_Lock_policyE2EE@Base 2.0.1
 (arch=armel)_ZTVSt23_Sp_counted_ptr_inplaceIN5Peony6VolumeESaIS1_ELN9__gnu_cxx12_Lock_policyE1EE@Base 2.0.1
 (arch=amd64)_ZTVSt23_Sp_counted_ptr_inplaceIN5Peony6VolumeESaIS1_ELN9__gnu_cxx12_Lock_policyE2EE@Base 2.0.1
 (arch=armel)_ZTVSt23_Sp_counted_ptr_inplaceIN5Peony8FileInfoESaIS1_ELN9__gnu_cxx12_Lock_policyE1EE@Base 2.0.1
 (arch=amd64)_ZTVSt23_Sp_counted_ptr_inplaceIN5Peony8FileInfoESaIS1_ELN9__gnu_cxx12_Lock_policyE2EE@Base 2.0.1
 (optional=templinst)_ZZN11QMetaTypeIdI5QListI11QModelIndexEE14qt_metatype_idEvE11metatype_id@Base 2.0.0
 (optional=templinst)_ZZN11QMetaTypeIdI5QListI21QPersistentModelIndexEE14qt_metatype_idEvE11metatype_id@Base 2.0.0
 (optional=templinst)_ZZN11QMetaTypeIdIN17QtMetaTypePrivate23QSequentialIterableImplEE14qt_metatype_idEvE11metatype_id@Base 2.0.0
 (optional=templinst)_ZZN11QMetaTypeIdIN5Peony13FileOperation12ResponseTypeEE14qt_metatype_idEvE11metatype_id@Base 2.0.0
 (optional=templinst)_ZZN11QMetaTypeIdISt10shared_ptrIN5Peony13GErrorWrapperEEE14qt_metatype_idEvE11metatype_id@Base 2.0.0
 (optional=templinst)_ZZN18QMetaTypeIdQObjectIP13FileLabelItemLi8EE14qt_metatype_idEvE11metatype_id@Base 2.1.0
 (optional=templinst)_ZZN18QMetaTypeIdQObjectIPN5Peony13FileItemModelELi8EE14qt_metatype_idEvE11metatype_id@Base 2.0.0
 (optional=templinst)_ZZN18QMetaTypeIdQObjectIPN5Peony13FileOperationELi8EE14qt_metatype_idEvE11metatype_id@Base 2.0.0
 (optional=templinst)_ZZN18QMetaTypeIdQObjectIPN5Peony17FileOperationInfoELi8EE14qt_metatype_idEvE11metatype_id@Base 2.2.0
 (optional=templinst)_ZZN18QMetaTypeIdQObjectIPN5Peony28FileItemProxyFilterSortModelELi8EE14qt_metatype_idEvE11metatype_id@Base 2.0.0
 (optional=templinst)_ZZN9QtPrivate15ConnectionTypesINS_4ListIJRK7QStringRKxEEELb1EE5typesEvE1t@Base 2.0.0
 (optional=templinst)_ZZN9QtPrivate15ConnectionTypesINS_4ListIJRK7QStringS4_RKSt10shared_ptrIN5Peony13GErrorWrapperEEbEEELb1EE5typesEvE1t@Base 2.0.0
 (optional=templinst)_ZZN9QtPrivate15ConnectionTypesINS_4ListIJbEEELb1EE5typesEvE1t@Base 2.0.0
 (optional=templinst)_ZZN9QtPrivate15ConnectionTypesINS_4ListIJyyyEEELb1EE5typesEvE1t@Base 2.0.0
 (optional=templinst)_ZZN9QtPrivate19ValueTypeIsMetaTypeI5QListI11QModelIndexELb1EE17registerConverterEiE1f@Base 2.0.0
 (optional=templinst)_ZZN9QtPrivate19ValueTypeIsMetaTypeI5QListI21QPersistentModelIndexELb1EE17registerConverterEiE1f@Base 2.0.0
 _ZZNSt19_Sp_make_shared_tag5_S_tiEvE5__tag@Base 2.0.0
 comparer@Base 2.0.0
 global_instance@Base 2.1.0
 is_registed@Base 2.0.0
 locale@Base 2.0.0
 (c++)"non-virtual thunk to ConnectServerDialog::~ConnectServerDialog()@Base" 2.0.0
 (c++)"non-virtual thunk to Peony::AdvanceSearchBar::~AdvanceSearchBar()@Base" 2.0.0
 (c++)"non-virtual thunk to Peony::AdvancedLocationBar::~AdvancedLocationBar()@Base" 2.0.0
 (c++)"non-virtual thunk to Peony::BasicPropertiesPage::~BasicPropertiesPage()@Base" 2.0.0
 (c++)"non-virtual thunk to Peony::BasicPropertiesPageFactory::closeFactory()@Base" 2.0.0
 (c++)"non-virtual thunk to Peony::BasicPropertiesPageFactory::createTabPage(QStringList const&)@Base" 2.0.0
 (c++)"non-virtual thunk to Peony::BasicPropertiesPageFactory::description()@Base" 2.0.0
 (c++)"non-virtual thunk to Peony::BasicPropertiesPageFactory::icon()@Base" 2.0.0
 (c++)"non-virtual thunk to Peony::BasicPropertiesPageFactory::isEnable()@Base" 2.0.0
 (c++)"non-virtual thunk to Peony::BasicPropertiesPageFactory::name()@Base" 2.0.0
 (c++)"non-virtual thunk to Peony::BasicPropertiesPageFactory::pluginType()@Base" 2.0.0
 (c++)"non-virtual thunk to Peony::BasicPropertiesPageFactory::setEnable(bool)@Base" 2.0.0
 (c++)"non-virtual thunk to Peony::BasicPropertiesPageFactory::supportUris(QStringList const&)@Base" 2.0.0
 (c++)"non-virtual thunk to Peony::BasicPropertiesPageFactory::tabOrder()@Base" 2.0.0
 (c++)"non-virtual thunk to Peony::BasicPropertiesPageFactory::~BasicPropertiesPageFactory()@Base" 2.0.0
 (c++)"non-virtual thunk to Peony::ComputerPropertiesPage::~ComputerPropertiesPage()@Base" 2.0.0
 (c++)"non-virtual thunk to Peony::ComputerPropertiesPageFactory::closeFactory()@Base" 2.0.0
 (c++)"non-virtual thunk to Peony::ComputerPropertiesPageFactory::createTabPage(QStringList const&)@Base" 2.0.0
 (c++)"non-virtual thunk to Peony::ComputerPropertiesPageFactory::description()@Base" 2.0.0
 (c++)"non-virtual thunk to Peony::ComputerPropertiesPageFactory::icon()@Base" 2.0.0
 (c++)"non-virtual thunk to Peony::ComputerPropertiesPageFactory::isEnable()@Base" 2.0.0
 (c++)"non-virtual thunk to Peony::ComputerPropertiesPageFactory::name()@Base" 2.0.0
 (c++)"non-virtual thunk to Peony::ComputerPropertiesPageFactory::pluginType()@Base" 2.0.0
 (c++)"non-virtual thunk to Peony::ComputerPropertiesPageFactory::setEnable(bool)@Base" 2.0.0
 (c++)"non-virtual thunk to Peony::ComputerPropertiesPageFactory::supportUris(QStringList const&)@Base" 2.0.0
 (c++)"non-virtual thunk to Peony::ComputerPropertiesPageFactory::tabOrder()@Base" 2.0.0
 (c++)"non-virtual thunk to Peony::ComputerPropertiesPageFactory::~ComputerPropertiesPageFactory()@Base" 2.0.0
 (c++)"non-virtual thunk to Peony::CreateLinkInternalPlugin::description()@Base" 2.0.0
 (c++)"non-virtual thunk to Peony::CreateLinkInternalPlugin::icon()@Base" 2.0.0
 (c++)"non-virtual thunk to Peony::CreateLinkInternalPlugin::isEnable()@Base" 2.0.0
 (c++)"non-virtual thunk to Peony::CreateLinkInternalPlugin::menuActions(QFlags<Peony::MenuPluginInterface::Type>, QString const&, QStringList const&)@Base" 2.0.0
 (c++)"non-virtual thunk to Peony::CreateLinkInternalPlugin::name()@Base" 2.0.0
 (c++)"non-virtual thunk to Peony::CreateLinkInternalPlugin::pluginType()@Base" 2.0.0
 (c++)"non-virtual thunk to Peony::CreateLinkInternalPlugin::setEnable(bool)@Base" 2.0.0
 (c++)"non-virtual thunk to Peony::CreateLinkInternalPlugin::testPlugin()@Base" 2.0.0
 (c++)"non-virtual thunk to Peony::CreateLinkInternalPlugin::~CreateLinkInternalPlugin()@Base" 2.0.0
 (c++)"non-virtual thunk to Peony::CreateTemplateOperation::run()@Base" 2.0.0
 (c++)"non-virtual thunk to Peony::CreateTemplateOperation::~CreateTemplateOperation()@Base" 2.0.0
 (c++)"non-virtual thunk to Peony::DefaultPreviewPage::cancel()@Base" 2.0.0
 (c++)"non-virtual thunk to Peony::DefaultPreviewPage::closePreviewPage()@Base" 2.0.0
 (c++)"non-virtual thunk to Peony::DefaultPreviewPage::prepare(QString const&)@Base" 2.0.0
 (c++)"non-virtual thunk to Peony::DefaultPreviewPage::prepare(QString const&, Peony::PreviewPageIface::PreviewType)@Base" 2.0.0
 (c++)"non-virtual thunk to Peony::DefaultPreviewPage::startPreview()@Base" 2.0.0
 (c++)"non-virtual thunk to Peony::DefaultPreviewPage::~DefaultPreviewPage()@Base" 2.0.0
 (c++)"non-virtual thunk to Peony::DefaultPreviewPageFactory::createPreviewPage()@Base" 2.0.0
 (c++)"non-virtual thunk to Peony::DefaultPreviewPageFactory::description()@Base" 2.0.0
 (c++)"non-virtual thunk to Peony::DefaultPreviewPageFactory::icon()@Base" 2.0.0
 (c++)"non-virtual thunk to Peony::DefaultPreviewPageFactory::isEnable()@Base" 2.0.0
 (c++)"non-virtual thunk to Peony::DefaultPreviewPageFactory::name()@Base" 2.0.0
 (c++)"non-virtual thunk to Peony::DefaultPreviewPageFactory::pluginType()@Base" 2.0.0
 (c++)"non-virtual thunk to Peony::DefaultPreviewPageFactory::setEnable(bool)@Base" 2.0.0
 (c++)"non-virtual thunk to Peony::DefaultPreviewPageFactory::~DefaultPreviewPageFactory()@Base" 2.0.0
 (c++)"non-virtual thunk to Peony::DirectoryView::IconView2::~IconView2()@Base" 2.0.0
 (c++)"non-virtual thunk to Peony::DirectoryView::IconView::beginLocationChange()@Base" 2.0.0
 (c++)"non-virtual thunk to Peony::DirectoryView::IconView::bindModel(Peony::FileItemModel*, Peony::FileItemProxyFilterSortModel*)@Base" 2.0.0
 (c++)"non-virtual thunk to Peony::DirectoryView::IconView::closeView()@Base" 2.0.0
 (c++)"non-virtual thunk to Peony::DirectoryView::IconView::editUri(QString const&)@Base" 2.0.0
 (c++)"non-virtual thunk to Peony::DirectoryView::IconView::editUris(QStringList)@Base" 2.0.0
 (c++)"non-virtual thunk to Peony::DirectoryView::IconView::getAllFileUris()@Base" 2.0.0
 (c++)"non-virtual thunk to Peony::DirectoryView::IconView::getDirectoryUri()@Base" 2.0.0
 (c++)"non-virtual thunk to Peony::DirectoryView::IconView::getProxy()@Base" 2.0.0
 (c++)"non-virtual thunk to Peony::DirectoryView::IconView::getSelections()@Base" 2.0.0
 (c++)"non-virtual thunk to Peony::DirectoryView::IconView::getSortOrder()@Base" 2.0.0
 (c++)"non-virtual thunk to Peony::DirectoryView::IconView::getSortType()@Base" 2.0.0
 (c++)"non-virtual thunk to Peony::DirectoryView::IconView::invertSelections()@Base" 2.0.0
 (c++)"non-virtual thunk to Peony::DirectoryView::IconView::open(QStringList const&, bool)@Base" 2.0.0
 (c++)"non-virtual thunk to Peony::DirectoryView::IconView::scrollToSelection(QString const&)@Base" 2.0.0
 (c++)"non-virtual thunk to Peony::DirectoryView::IconView::setCutFiles(QStringList const&)@Base" 2.0.0
 (c++)"non-virtual thunk to Peony::DirectoryView::IconView::setDirectoryUri(QString const&)@Base" 2.0.0
 (c++)"non-virtual thunk to Peony::DirectoryView::IconView::setProxy(Peony::DirectoryViewProxyIface*)@Base" 2.0.0
 (c++)"non-virtual thunk to Peony::DirectoryView::IconView::setSelections(QStringList const&)@Base" 2.0.0
 (c++)"non-virtual thunk to Peony::DirectoryView::IconView::setSortOrder(int)@Base" 2.0.0
 (c++)"non-virtual thunk to Peony::DirectoryView::IconView::setSortType(int)@Base" 2.0.0
 (c++)"non-virtual thunk to Peony::DirectoryView::IconView::stopLocationChange()@Base" 2.0.0
 (c++)"non-virtual thunk to Peony::DirectoryView::IconView::viewId()@Base" 2.0.0
 (c++)"non-virtual thunk to Peony::DirectoryView::IconView::~IconView()@Base" 2.0.0
 (c++)"non-virtual thunk to Peony::DirectoryView::IconViewEditor::~IconViewEditor()@Base" 2.0.0
 (c++)"non-virtual thunk to Peony::DirectoryView::IconViewIndexWidget::~IconViewIndexWidget()@Base" 2.0.0
 (c++)"non-virtual thunk to Peony::DirectoryView::ListView2::~ListView2()@Base" 2.0.0
 (c++)"non-virtual thunk to Peony::DirectoryView::ListView::beginLocationChange()@Base" 2.0.0
 (c++)"non-virtual thunk to Peony::DirectoryView::ListView::bindModel(Peony::FileItemModel*, Peony::FileItemProxyFilterSortModel*)@Base" 2.0.0
 (c++)"non-virtual thunk to Peony::DirectoryView::ListView::closeView()@Base" 2.0.0
 (c++)"non-virtual thunk to Peony::DirectoryView::ListView::editUri(QString const&)@Base" 2.0.0
 (c++)"non-virtual thunk to Peony::DirectoryView::ListView::editUris(QStringList)@Base" 2.0.0
 (c++)"non-virtual thunk to Peony::DirectoryView::ListView::getAllFileUris()@Base" 2.0.0
 (c++)"non-virtual thunk to Peony::DirectoryView::ListView::getDirectoryUri()@Base" 2.0.0
 (c++)"non-virtual thunk to Peony::DirectoryView::ListView::getProxy()@Base" 2.0.0
 (c++)"non-virtual thunk to Peony::DirectoryView::ListView::getSelections()@Base" 2.0.0
 (c++)"non-virtual thunk to Peony::DirectoryView::ListView::getSortOrder()@Base" 2.0.0
 (c++)"non-virtual thunk to Peony::DirectoryView::ListView::getSortType()@Base" 2.0.0
 (c++)"non-virtual thunk to Peony::DirectoryView::ListView::invertSelections()@Base" 2.0.0
 (c++)"non-virtual thunk to Peony::DirectoryView::ListView::open(QStringList const&, bool)@Base" 2.0.0
 (c++)"non-virtual thunk to Peony::DirectoryView::ListView::scrollToSelection(QString const&)@Base" 2.0.0
 (c++)"non-virtual thunk to Peony::DirectoryView::ListView::setCutFiles(QStringList const&)@Base" 2.0.0
 (c++)"non-virtual thunk to Peony::DirectoryView::ListView::setDirectoryUri(QString const&)@Base" 2.0.0
 (c++)"non-virtual thunk to Peony::DirectoryView::ListView::setProxy(Peony::DirectoryViewProxyIface*)@Base" 2.0.0
 (c++)"non-virtual thunk to Peony::DirectoryView::ListView::setSelections(QStringList const&)@Base" 2.0.0
 (c++)"non-virtual thunk to Peony::DirectoryView::ListView::setSortOrder(int)@Base" 2.0.0
 (c++)"non-virtual thunk to Peony::DirectoryView::ListView::setSortType(int)@Base" 2.0.0
 (c++)"non-virtual thunk to Peony::DirectoryView::ListView::stopLocationChange()@Base" 2.0.0
 (c++)"non-virtual thunk to Peony::DirectoryView::ListView::viewId()@Base" 2.0.0
 (c++)"non-virtual thunk to Peony::DirectoryView::ListView::~ListView()@Base" 2.0.0
 (c++)"non-virtual thunk to Peony::DirectoryViewContainer::~DirectoryViewContainer()@Base" 2.0.0
 (c++)"non-virtual thunk to Peony::DirectoryViewMenu::~DirectoryViewMenu()@Base" 2.0.0
 (c++)"non-virtual thunk to Peony::DirectoryViewWidget::~DirectoryViewWidget()@Base" 2.0.0
 (c++)"non-virtual thunk to Peony::FMWindow::addNewTabs(QStringList const&)@Base" 2.1.0
 (c++)"non-virtual thunk to Peony::FMWindow::advanceSearch()@Base" 2.1.0
 (c++)"non-virtual thunk to Peony::FMWindow::beginSwitchView(QString const&)@Base" 2.1.0
 (c++)"non-virtual thunk to Peony::FMWindow::clearRecord()@Base" 2.1.0
 (c++)"non-virtual thunk to Peony::FMWindow::create(QString const&)@Base" 2.1.0
 (c++)"non-virtual thunk to Peony::FMWindow::create(QStringList const&)@Base" 2.1.0
 (c++)"non-virtual thunk to Peony::FMWindow::editUri(QString const&)@Base" 2.1.0
 (c++)"non-virtual thunk to Peony::FMWindow::editUris(QStringList const&)@Base" 2.1.0
 (c++)"non-virtual thunk to Peony::FMWindow::filterUpdate(int, int, int)@Base" 2.1.0
 (c++)"non-virtual thunk to Peony::FMWindow::forceStopLoading()@Base" 2.1.0
 (c++)"non-virtual thunk to Peony::FMWindow::getCurrentAllFileUris()@Base" 2.1.0
 (c++)"non-virtual thunk to Peony::FMWindow::getCurrentPage()@Base" 2.1.0
 (c++)"non-virtual thunk to Peony::FMWindow::getCurrentPageViewType()@Base" 2.1.0
 (c++)"non-virtual thunk to Peony::FMWindow::getCurrentSelectionFileInfos()@Base" 2.1.0
 (c++)"non-virtual thunk to Peony::FMWindow::getCurrentSelections()@Base" 2.1.0
 (c++)"non-virtual thunk to Peony::FMWindow::getCurrentSortColumn()@Base" 2.1.0
 (c++)"non-virtual thunk to Peony::FMWindow::getCurrentSortOrder()@Base" 2.1.0
 (c++)"non-virtual thunk to Peony::FMWindow::getCurrentUri()@Base" 2.1.0
 (c++)"non-virtual thunk to Peony::FMWindow::getFactory()@Base" 2.1.0
 (c++)"non-virtual thunk to Peony::FMWindow::getLastNonSearchUri()@Base" 2.1.0
 (c++)"non-virtual thunk to Peony::FMWindow::getWindowShowHidden()@Base" 2.1.0
 (c++)"non-virtual thunk to Peony::FMWindow::getWindowSortFolderFirst()@Base" 2.1.0
 (c++)"non-virtual thunk to Peony::FMWindow::getWindowUseDefaultNameSortOrder()@Base" 2.1.0
 (c++)"non-virtual thunk to Peony::FMWindow::goToUri(QString const&, bool, bool)@Base" 2.1.0
 (c++)"non-virtual thunk to Peony::FMWindow::onPreviewPageSwitch(QString const&)@Base" 2.1.0
 (c++)"non-virtual thunk to Peony::FMWindow::refresh()@Base" 2.1.0
 (c++)"non-virtual thunk to Peony::FMWindow::searchFilter(QString, QString, bool, bool)@Base" 2.1.0
 (c++)"non-virtual thunk to Peony::FMWindow::setCurrentSelectionUris(QStringList const&)@Base" 2.1.0
 (c++)"non-virtual thunk to Peony::FMWindow::setCurrentSortColumn(int)@Base" 2.1.0
 (c++)"non-virtual thunk to Peony::FMWindow::setCurrentSortOrder(Qt::SortOrder)@Base" 2.1.0
 (c++)"non-virtual thunk to Peony::FMWindow::setShowHidden()@Base" 2.1.0
 (c++)"non-virtual thunk to Peony::FMWindow::setSortFolderFirst()@Base" 2.1.0
 (c++)"non-virtual thunk to Peony::FMWindow::setUseDefaultNameSortOrder()@Base" 2.1.0
 (c++)"non-virtual thunk to Peony::FMWindow::~FMWindow()@Base" 2.0.0
 (c++)"non-virtual thunk to Peony::FileCopyOperation::run()@Base" 2.0.0
 (c++)"non-virtual thunk to Peony::FileCopyOperation::~FileCopyOperation()@Base" 2.0.0
 (c++)"non-virtual thunk to Peony::FileCountOperation::run()@Base" 2.0.0
 (c++)"non-virtual thunk to Peony::FileCountOperation::~FileCountOperation()@Base" 2.0.0
 (c++)"non-virtual thunk to Peony::FileDeleteOperation::run()@Base" 2.0.0
 (c++)"non-virtual thunk to Peony::FileDeleteOperation::~FileDeleteOperation()@Base" 2.0.0
 (c++)"non-virtual thunk to Peony::FileLabelInternalMenuPlugin::description()@Base" 2.1.0
 (c++)"non-virtual thunk to Peony::FileLabelInternalMenuPlugin::icon()@Base" 2.1.0
 (c++)"non-virtual thunk to Peony::FileLabelInternalMenuPlugin::isEnable()@Base" 2.1.0
 (c++)"non-virtual thunk to Peony::FileLabelInternalMenuPlugin::menuActions(QFlags<Peony::MenuPluginInterface::Type>, QString const&, QStringList const&)@Base" 2.1.0
 (c++)"non-virtual thunk to Peony::FileLabelInternalMenuPlugin::name()@Base" 2.1.0
 (c++)"non-virtual thunk to Peony::FileLabelInternalMenuPlugin::pluginType()@Base" 2.1.0
 (c++)"non-virtual thunk to Peony::FileLabelInternalMenuPlugin::setEnable(bool)@Base" 2.1.0
 (c++)"non-virtual thunk to Peony::FileLabelInternalMenuPlugin::testPlugin()@Base" 2.1.0
 (c++)"non-virtual thunk to Peony::FileLabelInternalMenuPlugin::~FileLabelInternalMenuPlugin()@Base" 2.1.0
 (c++)"non-virtual thunk to Peony::FileLauchDialog::~FileLauchDialog()@Base" 2.0.0
 (c++)"non-virtual thunk to Peony::FileLinkOperation::run()@Base" 2.0.0
 (c++)"non-virtual thunk to Peony::FileLinkOperation::~FileLinkOperation()@Base" 2.0.0
 (c++)"non-virtual thunk to Peony::FileMoveOperation::run()@Base" 2.0.0
 (c++)"non-virtual thunk to Peony::FileMoveOperation::~FileMoveOperation()@Base" 2.0.0
 (c++)"non-virtual thunk to Peony::FileOperation::run()@Base" 2.0.0
 (c++)"non-virtual thunk to Peony::FileOperation::~FileOperation()@Base" 2.0.0
 (c++)"non-virtual thunk to Peony::FileOperationAfterProgressPage::~FileOperationAfterProgressPage()@Base" 2.0.0
 (c++)"non-virtual thunk to Peony::FileOperationErrorDialog::handleError(QString const&, QString const&, std::shared_ptr<Peony::GErrorWrapper> const&, bool)@Base" 2.0.0
 (c++)"non-virtual thunk to Peony::FileOperationErrorDialog::~FileOperationErrorDialog()@Base" 2.0.0
 (c++)"non-virtual thunk to Peony::FileOperationPreparePage::~FileOperationPreparePage()@Base" 2.0.0
 (c++)"non-virtual thunk to Peony::FileOperationProgressPage::~FileOperationProgressPage()@Base" 2.0.0
 (c++)"non-virtual thunk to Peony::FileOperationProgressWizard::~FileOperationProgressWizard()@Base" 2.0.0
 (c++)"non-virtual thunk to Peony::FileOperationRollbackPage::~FileOperationRollbackPage()@Base" 2.0.0
 (c++)"non-virtual thunk to Peony::FilePreviewPage::~FilePreviewPage()@Base" 2.0.0
 (c++)"non-virtual thunk to Peony::FileRenameOperation::run()@Base" 2.0.0
 (c++)"non-virtual thunk to Peony::FileRenameOperation::~FileRenameOperation()@Base" 2.0.0
 (c++)"non-virtual thunk to Peony::FileTrashOperation::run()@Base" 2.0.0
 (c++)"non-virtual thunk to Peony::FileTrashOperation::~FileTrashOperation()@Base" 2.0.0
 (c++)"non-virtual thunk to Peony::FileUntrashOperation::run()@Base" 2.0.0
 (c++)"non-virtual thunk to Peony::FileUntrashOperation::~FileUntrashOperation()@Base" 2.0.0
 (c++)"non-virtual thunk to Peony::IconContainer::~IconContainer()@Base" 2.0.0
 (c++)"non-virtual thunk to Peony::IconViewFactory2::create()@Base" 2.0.0
 (c++)"non-virtual thunk to Peony::IconViewFactory2::description()@Base" 2.0.0
 (c++)"non-virtual thunk to Peony::IconViewFactory2::icon()@Base" 2.0.0
 (c++)"non-virtual thunk to Peony::IconViewFactory2::isEnable()@Base" 2.0.0
 (c++)"non-virtual thunk to Peony::IconViewFactory2::maximumSupportedZoomLevel()@Base" 2.1.0
 (c++)"non-virtual thunk to Peony::IconViewFactory2::minimumSupportedZoomLevel()@Base" 2.1.0
 (c++)"non-virtual thunk to Peony::IconViewFactory2::name()@Base" 2.0.0
 (c++)"non-virtual thunk to Peony::IconViewFactory2::pluginType()@Base" 2.0.0
 (c++)"non-virtual thunk to Peony::IconViewFactory2::priority(QString const&)@Base" 2.0.0
 (c++)"non-virtual thunk to Peony::IconViewFactory2::setEnable(bool)@Base" 2.0.0
 (c++)"non-virtual thunk to Peony::IconViewFactory2::supportUri(QString const&)@Base" 2.0.0
 (c++)"non-virtual thunk to Peony::IconViewFactory2::supportZoom()@Base" 2.1.0
 (c++)"non-virtual thunk to Peony::IconViewFactory2::viewIcon()@Base" 2.0.0
 (c++)"non-virtual thunk to Peony::IconViewFactory2::viewIdentity()@Base" 2.0.0
 (c++)"non-virtual thunk to Peony::IconViewFactory2::viewName()@Base" 2.1.0
 (c++)"non-virtual thunk to Peony::IconViewFactory2::zoom_level_hint()@Base" 2.0.0
 (c++)"non-virtual thunk to Peony::IconViewFactory2::~IconViewFactory2()@Base" 2.0.0
 (c++)"non-virtual thunk to Peony::IconViewFactory::create()@Base" 2.0.0
 (c++)"non-virtual thunk to Peony::IconViewFactory::description()@Base" 2.0.0
 (c++)"non-virtual thunk to Peony::IconViewFactory::icon()@Base" 2.0.0
 (c++)"non-virtual thunk to Peony::IconViewFactory::isEnable()@Base" 2.0.0
 (c++)"non-virtual thunk to Peony::IconViewFactory::name()@Base" 2.0.0
 (c++)"non-virtual thunk to Peony::IconViewFactory::pluginType()@Base" 2.0.0
 (c++)"non-virtual thunk to Peony::IconViewFactory::priority(QString const&)@Base" 2.0.0
 (c++)"non-virtual thunk to Peony::IconViewFactory::setEnable(bool)@Base" 2.0.0
 (c++)"non-virtual thunk to Peony::IconViewFactory::supportUri(QString const&)@Base" 2.0.0
 (c++)"non-virtual thunk to Peony::IconViewFactory::viewIcon()@Base" 2.0.0
 (c++)"non-virtual thunk to Peony::IconViewFactory::viewIdentity()@Base" 2.0.0
 (c++)"non-virtual thunk to Peony::IconViewFactory::zoom_level_hint()@Base" 2.0.0
 (c++)"non-virtual thunk to Peony::IconViewFactory::~IconViewFactory()@Base" 2.0.0
 (c++)"non-virtual thunk to Peony::ListViewFactory2::create()@Base" 2.0.0
 (c++)"non-virtual thunk to Peony::ListViewFactory2::description()@Base" 2.0.0
 (c++)"non-virtual thunk to Peony::ListViewFactory2::icon()@Base" 2.0.0
 (c++)"non-virtual thunk to Peony::ListViewFactory2::isEnable()@Base" 2.0.0
 (c++)"non-virtual thunk to Peony::ListViewFactory2::maximumSupportedZoomLevel()@Base" 2.1.0
 (c++)"non-virtual thunk to Peony::ListViewFactory2::minimumSupportedZoomLevel()@Base" 2.1.0
 (c++)"non-virtual thunk to Peony::ListViewFactory2::name()@Base" 2.0.0
 (c++)"non-virtual thunk to Peony::ListViewFactory2::pluginType()@Base" 2.0.0
 (c++)"non-virtual thunk to Peony::ListViewFactory2::priority(QString const&)@Base" 2.0.0
 (c++)"non-virtual thunk to Peony::ListViewFactory2::setEnable(bool)@Base" 2.0.0
 (c++)"non-virtual thunk to Peony::ListViewFactory2::supportUri(QString const&)@Base" 2.0.0
 (c++)"non-virtual thunk to Peony::ListViewFactory2::supportZoom()@Base" 2.1.0
 (c++)"non-virtual thunk to Peony::ListViewFactory2::viewIcon()@Base" 2.0.0
 (c++)"non-virtual thunk to Peony::ListViewFactory2::viewIdentity()@Base" 2.0.0
 (c++)"non-virtual thunk to Peony::ListViewFactory2::viewName()@Base" 2.1.0
 (c++)"non-virtual thunk to Peony::ListViewFactory2::zoom_level_hint()@Base" 2.0.0
 (c++)"non-virtual thunk to Peony::ListViewFactory2::~ListViewFactory2()@Base" 2.0.0
 (c++)"non-virtual thunk to Peony::ListViewFactory::create()@Base" 2.0.0
 (c++)"non-virtual thunk to Peony::ListViewFactory::description()@Base" 2.0.0
 (c++)"non-virtual thunk to Peony::ListViewFactory::icon()@Base" 2.0.0
 (c++)"non-virtual thunk to Peony::ListViewFactory::isEnable()@Base" 2.0.0
 (c++)"non-virtual thunk to Peony::ListViewFactory::name()@Base" 2.0.0
 (c++)"non-virtual thunk to Peony::ListViewFactory::pluginType()@Base" 2.0.0
 (c++)"non-virtual thunk to Peony::ListViewFactory::priority(QString const&)@Base" 2.0.0
 (c++)"non-virtual thunk to Peony::ListViewFactory::setEnable(bool)@Base" 2.0.0
 (c++)"non-virtual thunk to Peony::ListViewFactory::supportUri(QString const&)@Base" 2.0.0
 (c++)"non-virtual thunk to Peony::ListViewFactory::viewIcon()@Base" 2.0.0
 (c++)"non-virtual thunk to Peony::ListViewFactory::viewIdentity()@Base" 2.0.0
 (c++)"non-virtual thunk to Peony::ListViewFactory::zoom_level_hint()@Base" 2.0.0
 (c++)"non-virtual thunk to Peony::ListViewFactory::~ListViewFactory()@Base" 2.0.0
 (c++)"non-virtual thunk to Peony::LocationBar::~LocationBar()@Base" 2.0.0
 (c++)"non-virtual thunk to Peony::NavigationBar::~NavigationBar()@Base" 2.0.0
 (c++)"non-virtual thunk to Peony::NavigationToolBar::~NavigationToolBar()@Base" 2.0.0
 (c++)"non-virtual thunk to Peony::PathEdit::~PathEdit()@Base" 2.0.0
 (c++)"non-virtual thunk to Peony::PermissionsPropertiesPage::~PermissionsPropertiesPage()@Base" 2.0.0
 (c++)"non-virtual thunk to Peony::PermissionsPropertiesPageFactory::closeFactory()@Base" 2.0.0
 (c++)"non-virtual thunk to Peony::PermissionsPropertiesPageFactory::createTabPage(QStringList const&)@Base" 2.0.0
 (c++)"non-virtual thunk to Peony::PermissionsPropertiesPageFactory::description()@Base" 2.0.0
 (c++)"non-virtual thunk to Peony::PermissionsPropertiesPageFactory::icon()@Base" 2.0.0
 (c++)"non-virtual thunk to Peony::PermissionsPropertiesPageFactory::isEnable()@Base" 2.0.0
 (c++)"non-virtual thunk to Peony::PermissionsPropertiesPageFactory::name()@Base" 2.0.0
 (c++)"non-virtual thunk to Peony::PermissionsPropertiesPageFactory::pluginType()@Base" 2.0.0
 (c++)"non-virtual thunk to Peony::PermissionsPropertiesPageFactory::setEnable(bool)@Base" 2.0.0
 (c++)"non-virtual thunk to Peony::PermissionsPropertiesPageFactory::supportUris(QStringList const&)@Base" 2.0.0
 (c++)"non-virtual thunk to Peony::PermissionsPropertiesPageFactory::tabOrder()@Base" 2.0.0
 (c++)"non-virtual thunk to Peony::PermissionsPropertiesPageFactory::~PermissionsPropertiesPageFactory()@Base" 2.0.0
 (c++)"non-virtual thunk to Peony::PreviewOptionToolBar::~PreviewOptionToolBar()@Base" 2.0.0
 (c++)"non-virtual thunk to Peony::PreviewPageContainer::~PreviewPageContainer()@Base" 2.0.0
 (c++)"non-virtual thunk to Peony::PropertiesWindow::~PropertiesWindow()@Base" 2.0.0
 (c++)"non-virtual thunk to Peony::PropertiesWindowPrivate::~PropertiesWindowPrivate()@Base" 2.0.0
 (c++)"non-virtual thunk to Peony::RecentAndTrashPropertiesPage::~RecentAndTrashPropertiesPage()@Base" 2.0.0
 (c++)"non-virtual thunk to Peony::RecentAndTrashPropertiesPageFactory::closeFactory()@Base" 2.0.0
 (c++)"non-virtual thunk to Peony::RecentAndTrashPropertiesPageFactory::createTabPage(QStringList const&)@Base" 2.0.0
 (c++)"non-virtual thunk to Peony::RecentAndTrashPropertiesPageFactory::description()@Base" 2.0.0
 (c++)"non-virtual thunk to Peony::RecentAndTrashPropertiesPageFactory::icon()@Base" 2.0.0
 (c++)"non-virtual thunk to Peony::RecentAndTrashPropertiesPageFactory::isEnable()@Base" 2.0.0
 (c++)"non-virtual thunk to Peony::RecentAndTrashPropertiesPageFactory::name()@Base" 2.0.0
 (c++)"non-virtual thunk to Peony::RecentAndTrashPropertiesPageFactory::pluginType()@Base" 2.0.0
 (c++)"non-virtual thunk to Peony::RecentAndTrashPropertiesPageFactory::setEnable(bool)@Base" 2.0.0
 (c++)"non-virtual thunk to Peony::RecentAndTrashPropertiesPageFactory::supportUris(QStringList const&)@Base" 2.0.0
 (c++)"non-virtual thunk to Peony::RecentAndTrashPropertiesPageFactory::tabOrder()@Base" 2.0.0
 (c++)"non-virtual thunk to Peony::RecentAndTrashPropertiesPageFactory::~RecentAndTrashPropertiesPageFactory()@Base" 2.0.0
 (c++)"non-virtual thunk to Peony::SearchBar::~SearchBar()@Base" 2.0.0
 (c++)"non-virtual thunk to Peony::SearchBarContainer::~SearchBarContainer()@Base" 2.1.0
 (c++)"non-virtual thunk to Peony::SideBar::~SideBar()@Base" 2.0.0
 (c++)"non-virtual thunk to Peony::SideBarMenu::~SideBarMenu()@Base" 2.0.0
 (c++)"non-virtual thunk to Peony::StatusBar::~StatusBar()@Base" 2.0.0
 (c++)"non-virtual thunk to Peony::TabPage::~TabPage()@Base" 2.0.0
 (c++)"non-virtual thunk to Peony::TextEdit::~TextEdit()@Base" 2.0.0
 (c++)"non-virtual thunk to Peony::ThumbnailJob::run()@Base" 2.1.0
 (c++)"non-virtual thunk to Peony::ThumbnailJob::~ThumbnailJob()@Base" 2.1.0
 (c++)"non-virtual thunk to Peony::ToolBar::~ToolBar()@Base" 2.0.0
 (c++)"non-virtual thunk to Peony::ToolBarContainer::~ToolBarContainer()@Base" 2.0.0
 (c++)"non-virtual thunk to QtConcurrent::RunFunctionTask<void>::run()@Base" 2.0.0
 (c++)"non-virtual thunk to QtConcurrent::RunFunctionTaskBase<void>::run()@Base" 2.0.0
 peony_search_vfs_file_enumerator_get_type@Base 2.0.0
 peony_search_vfs_file_get_type@Base 2.0.0
 peony_search_vfs_file_new_for_uri@Base 2.0.0
